ccollections
OrderedDict
p1
((lp2
(lp3
Vmusic
p4
aI1
aa(lp5
Vgameofthrones
p6
aI2
aa(lp7
Vsummer
p8
aI3
aa(lp9
Vfollowmebeau
p10
aI4
aa(lp11
Vnews
p12
aI5
aa(lp13
Vmyboyfriendnotallowedto
p14
aI6
aa(lp15
Virememberigotintroublefor
p16
aI7
aa(lp17
Vqna
p18
aI8
aa(lp19
Vgetglue
p20
aI9
aa(lp21
Vlol
p22
aI10
aa(lp23
Vfollow
p24
aI11
aa(lp25
Vbbathechase
p26
aI12
aa(lp27
Vteenwolf
p28
aI13
aa(lp29
Vsorrynotsorry
p30
aI14
aa(lp31
Vheartbreaker
p32
aI15
aa(lp33
Vlistenlive
p34
aI16
aa(lp35
Vhappy
p36
aI17
aa(lp37
Vfollowback
p38
aI18
aa(lp39
Vcrazymofos
p40
aI19
aa(lp41
Vaskmiley
p42
aI20
aa(lp43
Voccupygezi
p44
aI21
aa(lp45
Vwecantstop
p46
aI22
aa(lp47
Vheat
p48
aI23
aa(lp49
Vclarenceadrianfollowspree
p50
aI24
aa(lp51
Vnw
p52
aI25
aa(lp53
Vinitialsofsomeonespecial
p54
aI26
aa(lp55
Vfollowme
p56
aI27
aa(lp57
Vjunewish
p58
aI28
aa(lp59
Vcute
p60
aI29
aa(lp61
Vexcited
p62
aI30
aa(lp63
Vme
p64
aI31
aa(lp65
Vjaifollowmeyouasshole
p66
aI32
aa(lp67
Vbgt
p68
aI33
aa(lp69
Vtcot
p70
aI34
aa(lp71
Vtruth
p72
aI35
aa(lp73
Vtfbjp
p74
aI36
aa(lp75
Vsometimesyouhaveto
p76
aI37
aa(lp77
Vgot
p78
aI38
aa(lp79
Vff
p80
aI39
aa(lp81
Vfb
p82
aI40
aa(lp83
Vquote
p84
aI41
aa(lp85
Vretweet
p86
aI42
aa(lp87
Vheatnation
p88
aI43
aa(lp89
Vfashion
p90
aI44
aa(lp91
Vwtf
p92
aI45
aa(lp93
Vfml
p94
aI46
aa(lp95
Vpublicwankingonyoutube
p96
aI47
aa(lp97
Vthestruggle
p98
aI48
aa(lp99
Vopenfollow
p100
aI49
aa(lp101
Vturnup
p102
aI50
aa(lp103
Vbeautiful
p104
aI51
aa(lp105
Vfree
p106
aI52
aa(lp107
Vbored
p108
aI53
aa(lp109
Vfriends
p110
aI54
aa(lp111
Vfamily
p112
aI55
aa(lp113
Vselenalivechat
p114
aI56
aa(lp115
Vblessed
p116
aI57
aa(lp117
Vskipto1mill
p118
aI58
aa(lp119
Vlife
p120
aI59
aa(lp121
Vfun
p122
aI60
aa(lp123
Vpacers
p124
aI61
aa(lp125
Vloveit
p126
aI62
aa(lp127
Vturkey
p128
aI63
aa(lp129
Vcrazymofosfollowparty
p130
aI64
aa(lp131
Vmentionanattractivefeature
p132
aI65
aa(lp133
Vsmh
p134
aI66
aa(lp135
Vsex
p136
aI67
aa(lp137
V40millionbeliebers
p138
aI68
aa(lp139
Vfact
p140
aI69
aa(lp141
Vwin
p142
aI70
aa(lp143
Vphotography
p144
aI71
aa(lp145
Vfood
p146
aI72
aa(lp147
Vart
p148
aI73
aa(lp149
Vyolo
p150
aI74
aa(lp151
Vhot
p152
aI75
aa(lp153
Vthewantedlife
p154
aI76
aa(lp155
Vraw
p156
aI77
aa(lp157
Vsun
p158
aI78
aa(lp159
Vtired
p160
aI79
aa(lp161
Vwcws
p162
aI80
aa(lp163
Vvideo
p164
aI81
aa(lp165
Vmygirlfriendisnotallowedto
p166
aI82
aa(lp167
Vindirectyourex
p168
aI83
aa(lp169
Vporn
p170
aI84
aa(lp171
Vlt
p172
aI85
aa(lp173
Vamazing
p174
aI86
aa(lp175
Vlhhatl
p176
aI87
aa(lp177
Vbruins
p178
aI88
aa(lp179
Vwinning
p180
aI89
aa(lp181
Vnba
p182
aI90
aa(lp183
Vinstagram
p184
aI91
aa(lp185
Vgoodnight
p186
aI92
aa(lp187
Vlrt
p188
aI93
aa(lp189
Vfunny
p190
aI94
aa(lp191
Vawesome
p192
aI95
aa(lp193
Vpandora
p194
aI96
aa(lp195
Vcantwait
p196
aI97
aa(lp197
Vhelp
p198
aI98
aa(lp199
Vjustsaying
p200
aI99
aa(lp201
Vunionjqanda
p202
aI100
aa(lp203
Vtryhard
p204
aI101
aa(lp205
Vbusiness
p206
aI102
aa(lp207
Vloveyou
p208
aI103
aa(lp209
Vnyc
p210
aI104
aa(lp211
Vtravel
p212
aI105
aa(lp213
Vwork
p214
aI106
aa(lp215
Vsexy
p216
aI107
aa(lp217
Vyoulookgoodbut
p218
aI108
aa(lp219
Vdead
p220
aI109
aa(lp221
Vsocialmedia
p222
aI110
aa(lp223
Vnew
p224
aI111
aa(lp225
Vunpopularopinion
p226
aI112
aa(lp227
Vfuck
p228
aI113
aa(lp229
Vselfie
p230
aI114
aa(lp231
Vinstagood
p232
aI115
aa(lp233
Vhealth
p234
aI116
aa(lp235
Vdirectionermix1065
p236
aI117
aa(lp237
Vquotes
p238
aI118
aa(lp239
Vgame7
p240
aI119
aa(lp241
Vfollowngain
p242
aI120
aa(lp243
Vawkward
p244
aI121
aa(lp245
Vswag
p246
aI122
aa(lp247
Vparty
p248
aI123
aa(lp249
Vdownload
p250
aI124
aa(lp251
Vyum
p252
aI125
aa(lp253
Vplease
p254
aI126
aa(lp255
Voops
p256
aI127
aa(lp257
V500aday
p258
aI128
aa(lp259
Vnot
p260
aI129
aa(lp261
Vnofilter
p262
aI130
aa(lp263
Vgiveaway
p264
aI131
aa(lp265
Vcfc
p266
aI132
aa(lp267
Vtowim
p268
aI133
aa(lp269
Vdoctorwho
p270
aI134
aa(lp271
Vwhy
p272
aI135
aa(lp273
Vrepost
p274
aI136
aa(lp275
Vfinally
p276
aI137
aa(lp277
Vnikeplus
p278
aI138
aa(lp279
Vyoutube
p280
aI139
aa(lp281
Vrg13
p282
aI140
aa(lp283
Vthrowback
p284
aI141
aa(lp285
Vss5inaday1
p286
aI142
aa(lp287
Vthevoice
p288
aI143
aa(lp289
Vxxx
p290
aI144
aa(lp291
Vusa
p292
aI145
aa(lp293
Vbeach
p294
aI146
aa(lp295
Vtech
p296
aI147
aa(lp297
Vsmile
p298
aI148
aa(lp299
Vno
p300
aI149
aa(lp301
Vrespect
p302
aI150
aa(lp303
Vyay
p304
aI151
aa(lp305
Vfail
p306
aI152
aa(lp307
Vsad
p308
aI153
aa(lp309
Vperfect
p310
aI154
aa(lp311
Vlondon
p312
aI155
aa(lp313
Vtfb
p314
aI156
aa(lp315
Vcool
p316
aI157
aa(lp317
Vohwell
p318
aI158
aa(lp319
Vloveher
p320
aI159
aa(lp321
Vouch
p322
aI160
aa(lp323
Vwow
p324
aI161
aa(lp325
Vf4f
p326
aI162
aa(lp327
Vgirl
p328
aI163
aa(lp329
Vclassic
p330
aI164
aa(lp331
Vpussy
p332
aI165
aa(lp333
Vrealtalk
p334
aI166
aa(lp335
Vmarketing
p336
aI167
aa(lp337
Vrunkeeper
p338
aI168
aa(lp339
Vcancer
p340
aI169
aa(lp341
Vtwitter
p342
aI170
aa(lp343
Vugh
p344
aI171
aa(lp345
Vgemini
p346
aI172
aa(lp347
Vgirlcode
p348
aI173
aa(lp349
Vfollow4follow
p350
aI174
aa(lp351
Vcrazy
p352
aI175
aa(lp353
Vyummy
p354
aI176
aa(lp355
Vbirthday
p356
aI177
aa(lp357
Vhappy7thanniversaryelfs
p358
aI178
aa(lp359
Vgoodbyegop
p360
aI179
aa(lp361
Vfitness
p362
aI180
aa(lp363
Vphoto
p364
aI181
aa(lp365
Vblackhawks
p366
aI182
aa(lp367
Vbest
p368
aI183
aa(lp369
Vpisces
p370
aI184
aa(lp371
Vmemories
p372
aI185
aa(lp373
Vthebachelorette
p374
aI186
aa(lp375
Vlike
p376
aI187
aa(lp377
Vsyria
p378
aI188
aa(lp379
Vtowie
p380
aI189
aa(lp381
Vlastfm
p382
aI190
aa(lp383
Vyelp
p384
aI191
aa(lp385
Vrip
p386
aI192
aa(lp387
Vproud
p388
aI193
aa(lp389
Vhome
p390
aI194
aa(lp391
Vorigin
p392
aI195
aa(lp393
Vmlb
p394
aI196
aa(lp395
Vbeauty
p396
aI197
aa(lp397
Vmufc
p398
aI198
aa(lp399
Vrageofbahamut
p400
aI199
aa(lp401
Vmustfollow
p402
aI200
aa(lp403
Vss5inaday2
p404
aI201
aa(lp405
Vbachelorette
p406
aI202
aa(lp407
Vgoodtimes
p408
aI203
aa(lp409
Vthanks
p410
aI204
aa(lp411
Vgraduation
p412
aI205
aa(lp413
Vsougofollow
p414
aI206
aa(lp415
Vnbaplayoffs
p416
aI207
aa(lp417
Vleo
p418
aI208
aa(lp419
Vbestfriend
p420
aI209
aa(lp421
Vwhat
p422
aI210
aa(lp423
Vfacebook
p424
aI211
aa(lp425
Vhiphop
p426
aI212
aa(lp427
Vetsy
p428
aI213
aa(lp429
Vbaby
p430
aI214
aa(lp431
Vweather
p432
aI215
aa(lp433
Vmiddleschoolmemories
p434
aI216
aa(lp435
Vletsgoheat
p436
aI217
aa(lp437
Vweird
p438
aI218
aa(lp439
Vthevoiceuk
p440
aI219
aa(lp441
Vgirls
p442
aI220
aa(lp443
Vconfused
p444
aI221
aa(lp445
Vp2
p446
aI222
aa(lp447
Vdesign
p448
aI223
aa(lp449
Vannoying
p450
aI224
aa(lp451
Vtoronto
p452
aI225
aa(lp453
Vlohanthonyfollowme
p454
aI226
aa(lp455
Vautofollow
p456
aI227
aa(lp457
Vstyle
p458
aI228
aa(lp459
Vi
aI229
aa(lp460
Vsubtweet
p461
aI230
aa(lp462
Virs
p463
aI231
aa(lp464
Vgoodmorning
p465
aI232
aa(lp466
Vdirengeziparki
p467
aI233
aa(lp468
Vgoogle
p469
aI234
aa(lp470
Vomg
p471
aI235
aa(lp472
Vpens
p473
aI236
aa(lp474
Vwedding
p475
aI237
aa(lp476
Vyes
p477
aI238
aa(lp478
Vsalute
p479
aI239
aa(lp480
Vsorry
p481
aI240
aa(lp482
Vmovies
p483
aI241
aa(lp484
Vsamandcatthissaturday
p485
aI242
aa(lp486
Vphotooftheday
p487
aI243
aa(lp488
Vinstantfollowback
p489
aI244
aa(lp490
Vhey5sos
p491
aI245
aa(lp492
Varies
p493
aI246
aa(lp494
Vchimeforchange
p495
aI247
aa(lp496
Vaskdraya
p497
aI248
aa(lp498
Vdone
p499
aI249
aa(lp500
Vtheapprentice
p501
aI250
aa(lp502
Vdog
p503
aI251
aa(lp504
Vlfc
p505
aI252
aa(lp506
Vnight
p507
aI253
aa(lp508
Vhowto
p509
aI254
aa(lp510
Vdying
p511
aI255
aa(lp512
Vrhonj
p513
aI256
aa(lp514
Vauspol
p515
aI257
aa(lp516
Vthankyou
p517
aI258
aa(lp518
Vseo
p519
aI259
aa(lp520
Vbestfriends
p521
aI260
aa(lp522
Vlovehim
p523
aI261
aa(lp524
Vclassof2013
p525
aI262
aa(lp526
Vfirstworldproblems
p527
aI263
aa(lp528
Vteen
p529
aI264
aa(lp530
Vtrue
p531
aI265
aa(lp532
Vmyboyfriendisnotallowedto
p533
aI266
aa(lp534
Vchicago
p535
aI267
aa(lp536
Vvintage
p537
aI268
aa(lp538
Vscorpio
p539
aI269
aa(lp540
Vbye
p541
aI270
aa(lp542
Vfootball
p543
aI271
aa(lp544
Vrealestate
p545
aI272
aa(lp546
Vgay
p547
aI273
aa(lp548
Vrandom
p549
aI274
aa(lp550
Vmiami
p551
aI275
aa(lp552
Vsunshine
p553
aI276
aa(lp554
Vimagine
p555
aI277
aa(lp556
Vdamn
p557
aI278
aa(lp558
Vteamheat
p559
aI279
aa(lp560
Vmylife
p561
aI280
aa(lp562
Vuk
p563
aI281
aa(lp564
Vapple
p565
aI282
aa(lp566
Vengland
p567
aI283
aa(lp568
Vshoutout
p569
aI284
aa(lp570
Vmentionto
p571
aI285
aa(lp572
Vvine
p573
aI286
aa(lp574
Vsports
p575
aI287
aa(lp576
Vnowwatching
p577
aI288
aa(lp578
Vnow
p579
aI289
aa(lp580
Vredwedding
p581
aI290
aa(lp582
Vbot
p583
aI291
aa(lp584
Vsummertime
p585
aI292
aa(lp586
Vpakistan
p587
aI293
aa(lp588
Vmovie
p589
aI294
aa(lp590
Vperksofdatingme
p591
aI295
aa(lp592
Vlive
p593
aI296
aa(lp594
Vootd
p595
aI297
aa(lp596
Vchloeto1million
p597
aI298
aa(lp598
Vlazy
p599
aI299
aa(lp600
Vhair
p601
aI300
aa(lp602
Vultimatekalokalike
p603
aI301
aa(lp604
Vnascar
p605
aI302
aa(lp606
Vbelieve
p607
aI303
aa(lp608
Vsummer2013
p609
aI304
aa(lp610
Vgod
p611
aI305
aa(lp612
Vloop
p613
aI306
aa(lp614
Vusmnt
p615
aI307
aa(lp616
Vletsgo
p617
aI308
aa(lp618
Vsuccess
p619
aI309
aa(lp620
Vmissyou
p621
aI310
aa(lp622
Vlegend
p623
aI311
aa(lp624
Vnature
p625
aI312
aa(lp626
Vsadtweet
p627
aI313
aa(lp628
Vjobs4u
p629
aI314
aa(lp630
Vsunday
p631
aI315
aa(lp632
Vbooks
p633
aI316
aa(lp634
Vhaha
p635
aI317
aa(lp636
Vlmao
p637
aI318
aa(lp638
Vwcw
p639
aI319
aa(lp640
Vbitch
p641
aI320
aa(lp642
Vdearjesse
p643
aI321
aa(lp644
Vseriously
p645
aI322
aa(lp646
Vmotivation
p647
aI323
aa(lp648
Vshopping
p649
aI324
aa(lp650
Vtruestory
p651
aI325
aa(lp652
Vannoyed
p653
aI326
aa(lp654
Vmic
p655
aI327
aa(lp656
Vpink
p657
aI328
aa(lp658
Vjune
p659
aI329
aa(lp660
Vdirectionersandbeliebersfollowparty
p661
aI330
aa(lp662
Vamazon
p663
aI331
aa(lp664
Vtechnology
p665
aI332
aa(lp666
Vhiring
p667
aI333
aa(lp668
Vfoodporn
p669
aI334
aa(lp670
Vvegas
p671
aI335
aa(lp672
Vjealous
p673
aI336
aa(lp674
Vepic
p675
aI337
aa(lp676
Vwwe
p677
aI338
aa(lp678
Vkindle
p679
aI339
aa(lp680
Vgood
p681
aI340
aa(lp682
Vbeattheheat
p683
aI341
aa(lp684
Vgreat
p685
aI342
aa(lp686
Vmoney
p687
aI343
aa(lp688
Vcheap
p689
aI344
aa(lp690
Vindia
p691
aI345
aa(lp692
Vmakeup
p693
aI346
aa(lp694
Vthingsthatscareobama
p695
aI347
aa(lp696
Vpretty
p697
aI348
aa(lp698
Vmy
p699
aI349
aa(lp700
Vkuwtk
p701
aI350
aa(lp702
Vhungry
p703
aI351
aa(lp704
Vtoys
p705
aI352
aa(lp706
Vct13
p707
aI353
aa(lp708
Vblack
p709
aI354
aa(lp710
Vsick
p711
aI355
aa(lp712
Vthe
p713
aI356
aa(lp714
Vbecauseitsthecup
p715
aI357
aa(lp716
Vexhausted
p717
aI358
aa(lp718
Vschool
p719
aI359
aa(lp720
Vyankees
p721
aI360
aa(lp722
Vjesus
p723
aI361
aa(lp724
Vjewelry
p725
aI362
aa(lp726
Vcoffee
p727
aI363
aa(lp728
Vstop
p729
aI364
aa(lp730
Vinstamood
p731
aI365
aa(lp732
Vfollowers
p733
aI366
aa(lp734
Vlions
p735
aI367
aa(lp736
Vlovethem
p737
aI368
aa(lp738
Vyou
p739
aI369
aa(lp740
Vnohomo
p741
aI370
aa(lp742
Vvirgo
p743
aI371
aa(lp744
Vcat
p745
aI372
aa(lp746
Vhilarious
p747
aI373
aa(lp748
Viloveyou
p749
aI374
aa(lp750
Vnfl
p751
aI375
aa(lp752
Vpissed
p753
aI376
aa(lp754
Vinspiration
p755
aI377
aa(lp756
Vconstantcontact
p757
aI378
aa(lp758
Vjustsayin
p759
aI379
aa(lp760
Vautofollowback
p761
aI380
aa(lp762
Vdeal
p763
aI381
aa(lp764
Vbeer
p765
aI382
aa(lp766
Vhelpchloeto1million
p767
aI383
aa(lp768
Vgreen
p769
aI384
aa(lp770
Vpeace
p771
aI385
aa(lp772
Voccupyturkey
p773
aI386
aa(lp774
Vhealthy
p775
aI387
aa(lp776
Vsoexcited
p777
aI388
aa(lp778
Vsweet
p779
aI389
aa(lp780
Vsjxx
p781
aI390
aa(lp782
Vobsessed
p783
aI391
aa(lp784
Vnice
p785
aI392
aa(lp786
Vred
p787
aI393
aa(lp788
Vmiamiheat
p789
aI394
aa(lp790
Vinstadaily
p791
aI395
aa(lp792
Vrunning
p793
aI396
aa(lp794
Vspotify
p795
aI397
aa(lp796
Vshit
p797
aI398
aa(lp798
Vbeliebersareexcitedforheartbreaker
p799
aI399
aa(lp800
Vfuckyou
p801
aI400
aa(lp802
Vnbafinals
p803
aI401
aa(lp804
Vthf
p805
aI402
aa(lp806
Vforeveralone
p807
aI403
aa(lp808
Vmadmen
p809
aI404
aa(lp810
Vmadeinchelsea
p811
aI405
aa(lp812
Vbarackobamasnextbook
p813
aI406
aa(lp814
Vteaparty
p815
aI407
aa(lp816
Vvacation
p817
aI408
aa(lp818
Vbaseball
p819
aI409
aa(lp820
Vitunes
p821
aI410
aa(lp822
Vblue
p823
aI411
aa(lp824
Vtaurus
p825
aI412
aa(lp826
Vsoundhound
p827
aI413
aa(lp828
Vpicoftheday
p829
aI414
aa(lp830
Vonline
p831
aI415
aa(lp832
Vsleep
p833
aI416
aa(lp834
Vgossip
p835
aI417
aa(lp836
Vinstapic
p837
aI418
aa(lp838
Vsagittarius
p839
aI419
aa(lp840
Vblog
p841
aI420
aa(lp842
Vendomondo
p843
aI421
aa(lp844
Vsunny
p845
aI422
aa(lp846
Vaskimaginedragons
p847
aI423
aa(lp848
Vus
p849
aI424
aa(lp850
Vnhl
p851
aI425
aa(lp852
Vboom
p853
aI426
aa(lp854
Vin
p855
aI427
aa(lp856
Vthankgod
p857
aI428
aa(lp858
Vcelebrity
p859
aI429
aa(lp860
Vwomen
p861
aI430
aa(lp862
V90sbabyfollowtrain
p863
aI431
aa(lp864
Vmorning
p865
aI432
aa(lp866
Vbrazil
p867
aI433
aa(lp868
Vdance
p869
aI434
aa(lp870
Vswerve
p871
aI435
aa(lp872
Vtweetmyjobs
p873
aI436
aa(lp874
Vboston
p875
aI437
aa(lp876
Vnf
p877
aI438
aa(lp878
Vsleepy
p879
aI439
aa(lp880
Vigers
p881
aI440
aa(lp882
Vprosofdatingme
p883
aI441
aa(lp884
Vaddicted
p885
aI442
aa(lp886
Vifollowyou
p887
aI443
aa(lp888
Vfrenchopen
p889
aI444
aa(lp890
Vebyrichardfollowspree
p891
aI445
aa(lp892
Vit
p893
aI446
aa(lp894
Vworld
p895
aI447
aa(lp896
Vworkout
p897
aI448
aa(lp898
Vslammiversary
p899
aI449
aa(lp900
Vnsfw
p901
aI450
aa(lp902
Vsarcasm
p903
aI451
aa(lp904
Vspurs
p905
aI452
aa(lp906
Vaskally
p907
aI453
aa(lp908
Vboyfriend
p909
aI454
aa(lp910
Vporno
p911
aI455
aa(lp912
Vcapricorn
p913
aI456
aa(lp914
Vfreedom
p915
aI457
aa(lp916
Vcricket
p917
aI458
aa(lp918
Vgames
p919
aI459
aa(lp920
Vdecisions
p921
aI460
aa(lp922
V1000aday
p923
aI461
aa(lp924
Vamen
p925
aI462
aa(lp926
Vmobile
p927
aI463
aa(lp928
Vforex
p929
aI464
aa(lp930
Vsundayfunday
p931
aI465
aa(lp932
Vsunset
p933
aI466
aa(lp934
Vcdnpoli
p935
aI467
aa(lp936
Vtagsforlikes
p937
aI468
aa(lp938
Vagt
p939
aI469
aa(lp940
Vjk
p941
aI470
aa(lp942
Veducation
p943
aI471
aa(lp944
Vaquarius
p945
aI472
aa(lp946
Vteamautofollow
p947
aI473
aa(lp948
Vnewmusic
p949
aI474
aa(lp950
Vrunwayvalerie
p951
aI475
aa(lp952
Vhitfollowsteam
p953
aI476
aa(lp954
Vmentionsomeonehassweetsmile
p955
aI477
aa(lp956
Vsogood
p957
aI478
aa(lp958
Vgross
p959
aI479
aa(lp960
Vsigh
p961
aI480
aa(lp962
Vistanbul
p963
aI481
aa(lp964
Vclarencefollowspree
p965
aI482
aa(lp966
Vkids
p967
aI483
aa(lp968
Vbff
p969
aI484
aa(lp970
Vrap
p971
aI485
aa(lp972
Vsky
p973
aI486
aa(lp974
Vdailytweet
p975
aI487
aa(lp976
Vwecantstoppremiere
p977
aI488
aa(lp978
Vpllchat
p979
aI489
aa(lp980
Vbittersweet
p981
aI490
aa(lp982
Vthuglife
p983
aI491
aa(lp984
Vinlove
p985
aI492
aa(lp986
Vpll
p987
aI493
aa(lp988
Vthebest
p989
aI494
aa(lp990
Vdope
p991
aI495
aa(lp992
Vwebcamtoy
p993
aI496
aa(lp994
Vthingsthatscarerepublicans
p995
aI497
aa(lp996
Vcar
p997
aI498
aa(lp998
Vsaturday
p999
aI499
aa(lp1000
Voklahoma
p1001
aI500
aa(lp1002
Vteamhitfollow
p1003
aI501
aa(lp1004
Vholiday
p1005
aI502
aa(lp1006
Vmuchlove
p1007
aI503
aa(lp1008
Vscared
p1009
aI504
aa(lp1010
V\u0623\u0643\u062a\u0628_\u062a\u0627\u0631\u064a\u062e_\u0644\u0646_\u062a\u0646\u0633\u0627\u0647_\u0641\u064a_\u062d\u064a\u0627\u062a\u0643
p1011
aI505
aa(lp1012
Vdelicious
p1013
aI506
aa(lp1014
Vkisskisslovato
p1015
aI507
aa(lp1016
Vnervous
p1017
aI508
aa(lp1018
Vtmlt
p1019
aI509
aa(lp1020
Vtwitterafterdark
p1021
aI510
aa(lp1022
Vdrunk
p1023
aI511
aa(lp1024
Vgoaway
p1025
aI512
aa(lp1026
Vflorida
p1027
aI513
aa(lp1028
Vwishfulthinking
p1029
aI514
aa(lp1030
Vafterearth
p1031
aI515
aa(lp1032
Vfinals
p1033
aI516
aa(lp1034
Vjapan
p1035
aI517
aa(lp1036
Vsoccer
p1037
aI518
aa(lp1038
Vpicstitch
p1039
aI519
aa(lp1040
Vexposepp
p1041
aI520
aa(lp1042
Vapp
p1043
aI521
aa(lp1044
Vleadership
p1045
aI522
aa(lp1046
Vwine
p1047
aI523
aa(lp1048
Vwhite
p1049
aI524
aa(lp1050
Vdinner
p1051
aI525
aa(lp1052
Vdontjudgeme
p1053
aI526
aa(lp1054
Va
aI527
aa(lp1055
Vbeliebers
p1056
aI528
aa(lp1057
Vnationalrunningday
p1058
aI529
aa(lp1059
Voffline
p1060
aI530
aa(lp1061
Vsale
p1062
aI531
aa(lp1063
Vpumped
p1064
aI532
aa(lp1065
Vperfection
p1066
aI533
aa(lp1067
Vifollowback
p1068
aI534
aa(lp1069
Vthankful
p1070
aI535
aa(lp1071
Voff
p1072
aI536
aa(lp1073
Vbbq
p1074
aI537
aa(lp1075
Vfuckoff
p1076
aI538
aa(lp1077
Vew
p1078
aI539
aa(lp1079
Vfingerscrossed
p1080
aI540
aa(lp1081
Vjudgeme
p1082
aI541
aa(lp1083
Vnoshame
p1084
aI542
aa(lp1085
Vroadtrip
p1086
aI543
aa(lp1087
Vdeals
p1088
aI544
aa(lp1089
Vfuckit
p1090
aI545
aa(lp1091
Vsocute
p1092
aI546
aa(lp1093
Vwater
p1094
aI547
aa(lp1095
Vstupid
p1096
aI548
aa(lp1097
Vday
p1098
aI549
aa(lp1099
Vbraves
p1100
aI550
aa(lp1101
Vobama
p1102
aI551
aa(lp1103
Vgolf
p1104
aI552
aa(lp1105
Vdisney
p1106
aI553
aa(lp1107
Vshutup
p1108
aI554
aa(lp1109
Vheaven
p1110
aI555
aa(lp1111
Vnewyork
p1112
aI556
aa(lp1113
Vlibra
p1114
aI557
aa(lp1115
Vgym
p1116
aI558
aa(lp1117
Vpromise
p1118
aI559
aa(lp1119
Vleggo
p1120
aI560
aa(lp1121
Vhappiness
p1122
aI561
aa(lp1123
Vedm
p1124
aI562
aa(lp1125
Vnike
p1126
aI563
aa(lp1127
Vmonday
p1128
aI564
aa(lp1129
Vthingsthatscaredemocrats
p1130
aI565
aa(lp1131
Vbigbroafrica
p1132
aI566
aa(lp1133
Vtbex
p1134
aI567
aa(lp1135
Vafc
p1136
aI568
aa(lp1137
Vtoday
p1138
aI569
aa(lp1139
Vbbloggers
p1140
aI570
aa(lp1141
Vchina
p1142
aI571
aa(lp1143
Vboring
p1144
aI572
aa(lp1145
Vshare
p1146
aI573
aa(lp1147
Vwhentwitterwasdown
p1148
aI574
aa(lp1149
Vunionj1million
p1150
aI575
aa(lp1151
Vcrying
p1152
aI576
aa(lp1153
Vgop
p1154
aI577
aa(lp1155
Vword
p1156
aI578
aa(lp1157
Vtattoo
p1158
aI579
aa(lp1159
Vrun
p1160
aI580
aa(lp1161
Vbreakfast
p1162
aI581
aa(lp1163
Vebay
p1164
aI582
aa(lp1165
Vpriceless
p1166
aI583
aa(lp1167
Vass
p1168
aI584
aa(lp1169
Vreal
p1170
aI585
aa(lp1171
Vla
p1172
aI586
aa(lp1173
Vgrowup
p1174
aI587
aa(lp1175
Vtv
p1176
aI588
aa(lp1177
Ventertainment
p1178
aI589
aa(lp1179
Vbubblews
p1180
aI590
aa(lp1181
Visthatweird
p1182
aI591
aa(lp1183
Vtexas
p1184
aI592
aa(lp1185
Vhappybirthday
p1186
aI593
aa(lp1187
Vbootyhadmelike
p1188
aI594
aa(lp1189
Vkillmenow
p1190
aI595
aa(lp1191
Vredsox
p1192
aI596
aa(lp1193
Vfresh
p1194
aI597
aa(lp1195
Vpuppy
p1196
aI598
aa(lp1197
Vsamandcat1week
p1198
aI599
aa(lp1199
Vboy
p1200
aI600
aa(lp1201
Vfantasica
p1202
aI601
aa(lp1203
Vnothingtolose
p1204
aI602
aa(lp1205
Vnowyouseeme
p1206
aI603
aa(lp1207
Vshoes
p1208
aI604
aa(lp1209
Vmcm
p1210
aI605
aa(lp1211
Vshopmycloset
p1212
aI606
aa(lp1213
Voomfs
p1214
aI607
aa(lp1215
Vhonestyhour
p1216
aI608
aa(lp1217
Vlikeforlike
p1218
aI609
aa(lp1219
Vradio
p1220
aI610
aa(lp1221
Vscary
p1222
aI611
aa(lp1223
Vnotcool
p1224
aI612
aa(lp1225
Vconcert
p1226
aI613
aa(lp1227
Vgigmemories
p1228
aI614
aa(lp1229
Vskint
p1230
aI615
aa(lp1231
Vtimeflies
p1232
aI616
aa(lp1233
Vdiscount
p1234
aI617
aa(lp1235
Vfathersday
p1236
aI618
aa(lp1237
Vqanda
p1238
aI619
aa(lp1239
Vmindblown
p1240
aI620
aa(lp1241
Vworkflow
p1242
aI621
aa(lp1243
Vinstalike
p1244
aI622
aa(lp1245
Vjobsearch
p1246
aI623
aa(lp1247
Vboss
p1248
aI624
aa(lp1249
Vpt
p1250
aI625
aa(lp1251
V40millionstrong
p1252
aI626
aa(lp1253
Vonedirection
p1254
aI627
aa(lp1255
Vfast6
p1256
aI628
aa(lp1257
Vfriend
p1258
aI629
aa(lp1259
Vstarbucks
p1260
aI630
aa(lp1261
Vfacts
p1262
aI631
aa(lp1263
Vlistia
p1264
aI632
aa(lp1265
Vfaith
p1266
aI633
aa(lp1267
Vslowdown
p1268
aI634
aa(lp1269
Vlisten
p1270
aI635
aa(lp1271
Vnolife
p1272
aI636
aa(lp1273
Vsotired
p1274
aI637
aa(lp1275
Vflowers
p1276
aI638
aa(lp1277
Vsupport
p1278
aI639
aa(lp1279
Vidiot
p1280
aI640
aa(lp1281
Vuniteblue
p1282
aI641
aa(lp1283
Vforever
p1284
aI642
aa(lp1285
Vscience
p1286
aI643
aa(lp1287
Vkeek
p1288
aI644
aa(lp1289
Vdubai
p1290
aI645
aa(lp1291
Vcollege
p1292
aI646
aa(lp1293
Vf
aI647
aa(lp1294
Vmagic
p1295
aI648
aa(lp1296
Vlunch
p1297
aI649
aa(lp1298
Vwatch
p1299
aI650
aa(lp1300
Vmodel
p1301
aI651
aa(lp1302
Vphillies
p1303
aI652
aa(lp1304
Vicant
p1305
aI653
aa(lp1306
Vegypt
p1307
aI654
aa(lp1308
Vexams
p1309
aI655
aa(lp1310
Vrock
p1311
aI656
aa(lp1312
Vbook
p1313
aI657
aa(lp1314
Vwhoops
p1315
aI658
aa(lp1316
V\ub291\ub300\uc640\ubbf8\ub140
p1317
aI659
aa(lp1318
Vloser
p1319
aI660
aa(lp1320
Vrns
p1321
aI661
aa(lp1322
Vgold
p1323
aI662
aa(lp1324
Vweekend
p1325
aI663
aa(lp1326
Vhelpme
p1327
aI664
aa(lp1328
V28thyuchunday
p1329
aI665
aa(lp1330
V69factsaboutme
p1331
aI666
aa(lp1332
Vsister
p1333
aI667
aa(lp1334
Vdodgers
p1335
aI668
aa(lp1336
Vgoodluck
p1337
aI669
aa(lp1338
Vdc
p1339
aI670
aa(lp1340
Vparis
p1341
aI671
aa(lp1342
Vstartup
p1343
aI672
aa(lp1344
Vlame
p1345
aI673
aa(lp1346
Vsales
p1347
aI674
aa(lp1348
Vcanada
p1349
aI675
aa(lp1350
Vrelax
p1351
aI676
aa(lp1352
Vequalmarriage
p1353
aI677
aa(lp1354
Vwriting
p1355
aI678
aa(lp1356
Vcalifornia
p1357
aI679
aa(lp1358
Vamerica
p1359
aI680
aa(lp1360
Vstfu
p1361
aI681
aa(lp1362
Vbbc
p1363
aI682
aa(lp1364
Vadorable
p1365
aI683
aa(lp1366
Vpenguins
p1367
aI684
aa(lp1368
Vbizitalk
p1369
aI685
aa(lp1370
Von
p1371
aI686
aa(lp1372
Vtlot
p1373
aI687
aa(lp1374
Vtennis
p1375
aI688
aa(lp1376
Vthirsty
p1377
aI689
aa(lp1378
Vinanotherlife
p1379
aI690
aa(lp1380
Vgifboom
p1381
aI691
aa(lp1382
Vcake
p1383
aI692
aa(lp1384
Vcutie
p1385
aI693
aa(lp1386
Vfilm
p1387
aI694
aa(lp1388
Vpain
p1389
aI695
aa(lp1390
Vad
p1391
aI696
aa(lp1392
Vhtnotvday
p1393
aI697
aa(lp1394
Vprayforturkey
p1395
aI698
aa(lp1396
Vgorgeous
p1397
aI699
aa(lp1398
Vcelebritynews
p1399
aI700
aa(lp1400
Vprom
p1401
aI701
aa(lp1402
Vhollywood
p1403
aI702
aa(lp1404
Vtopoli
p1405
aI703
aa(lp1406
Vsimple
p1407
aI704
aa(lp1408
Vlongtime
p1409
aI705
aa(lp1410
Visrael
p1411
aI706
aa(lp1412
Vexo
p1413
aI707
aa(lp1414
Vwisdom
p1415
aI708
aa(lp1416
Vmerica
p1417
aI709
aa(lp1418
Vcws
p1419
aI710
aa(lp1420
Vaskriley
p1421
aI711
aa(lp1422
Vsuckstosuck
p1423
aI712
aa(lp1424
Vstanleycup
p1425
aI713
aa(lp1426
Vdownloadunionjcarryyounow
p1427
aI714
aa(lp1428
Vchocolate
p1429
aI715
aa(lp1430
Vsoftball
p1431
aI716
aa(lp1432
Vgame
p1433
aI717
aa(lp1434
Vso
p1435
aI718
aa(lp1436
Vhashtag
p1437
aI719
aa(lp1438
Vrain
p1439
aI720
aa(lp1440
Vtime
p1441
aI721
aa(lp1442
Vsnapchat
p1443
aI722
aa(lp1444
Vfake10factsaboutme
p1445
aI723
aa(lp1446
Vtypical
p1447
aI724
aa(lp1448
Vhurryup
p1449
aI725
aa(lp1450
Vjustinbieber
p1451
aI726
aa(lp1452
Vedl
p1453
aI727
aa(lp1454
Vlike2
p1455
aI728
aa(lp1456
Vhandmade
p1457
aI729
aa(lp1458
Vhouse
p1459
aI730
aa(lp1460
Vkillme
p1461
aI731
aa(lp1462
Vtgdn
p1463
aI732
aa(lp1464
Vjanoskiansnewvideo
p1465
aI733
aa(lp1466
Vsport
p1467
aI734
aa(lp1468
Vcars
p1469
aI735
aa(lp1470
Vsmackdown
p1471
aI736
aa(lp1472
Vbasketball
p1473
aI737
aa(lp1474
Vlgbt
p1475
aI738
aa(lp1476
Vstateoforigin
p1477
aI739
aa(lp1478
Vnails
p1479
aI740
aa(lp1480
Vcycling
p1481
aI741
aa(lp1482
Vsamuraiempire
p1483
aI742
aa(lp1484
Vaskbarbara
p1485
aI743
aa(lp1486
Vvancouver
p1487
aI744
aa(lp1488
Vfollowmemelanie
p1489
aI745
aa(lp1490
Vnosleep
p1491
aI746
aa(lp1492
Vboobs
p1493
aI747
aa(lp1494
Vaustralia
p1495
aI748
aa(lp1496
Vrelaxing
p1497
aI749
aa(lp1498
Varsenal
p1499
aI750
aa(lp1500
Vgoodday
p1501
aI751
aa(lp1502
Vchill
p1503
aI752
aa(lp1504
Vstressed
p1505
aI753
aa(lp1506
Vturntup
p1507
aI754
aa(lp1508
Vstoryofmylife
p1509
aI755
aa(lp1510
Vpathetic
p1511
aI756
aa(lp1512
Vrude
p1513
aI757
aa(lp1514
Vroom94followingspree
p1515
aI758
aa(lp1516
Vpool
p1517
aI759
aa(lp1518
Voh
p1519
aI760
aa(lp1520
Vsecretlife
p1521
aI761
aa(lp1522
Vdogs
p1523
aI762
aa(lp1524
Vthefosters
p1525
aI763
aa(lp1526
Vhouston
p1527
aI764
aa(lp1528
Vtrend
p1529
aI765
aa(lp1530
Vadult
p1531
aI766
aa(lp1532
Vrealshit
p1533
aI767
aa(lp1534
Vbullshit
p1535
aI768
aa(lp1536
Vcantsleep
p1537
aI769
aa(lp1538
Vfreelance
p1539
aI770
aa(lp1540
Vgrateful
p1541
aI771
aa(lp1542
Vpti
p1543
aI772
aa(lp1544
Vok
p1545
aI773
aa(lp1546
Vlike4like
p1547
aI774
aa(lp1548
Vitaly
p1549
aI775
aa(lp1550
Vlyrics
p1551
aI776
aa(lp1552
Vdedication
p1553
aI777
aa(lp1554
Vicecream
p1555
aI778
aa(lp1556
Vratchet
p1557
aI779
aa(lp1558
Vfire
p1559
aI780
aa(lp1560
Vbenghazi
p1561
aI781
aa(lp1562
Vreally
p1563
aI782
aa(lp1564
Vprettylittleliars
p1565
aI783
aa(lp1566
Voldschool
p1567
aI784
aa(lp1568
Vsohappy
p1569
aI785
aa(lp1570
Vfavorite
p1571
aI786
aa(lp1572
Vsucks
p1573
aI787
aa(lp1574
Vletsgopens
p1575
aI788
aa(lp1576
Vhellyeah
p1577
aI789
aa(lp1578
Vxfactornz
p1579
aI790
aa(lp1580
Vlovely
p1581
aI791
aa(lp1582
Vatl
p1583
aI792
aa(lp1584
Vf1
p1585
aI793
aa(lp1586
Vholla
p1587
aI794
aa(lp1588
Venjoy
p1589
aI795
aa(lp1590
Vtwins
p1591
aI796
aa(lp1592
Vwhatever
p1593
aI797
aa(lp1594
Vtoofunny
p1595
aI798
aa(lp1596
Vassoverboobsbecause
p1597
aI799
aa(lp1598
Vhistory
p1599
aI800
aa(lp1600
Vhawks
p1601
aI801
aa(lp1602
Vpolitics
p1603
aI802
aa(lp1604
Vedchat
p1605
aI803
aa(lp1606
Vlakings
p1607
aI804
aa(lp1608
Vsisters
p1609
aI805
aa(lp1610
Venglandvsbrazil
p1611
aI806
aa(lp1612
Vromance
p1613
aI807
aa(lp1614
Vsingle
p1615
aI808
aa(lp1616
Vafrica
p1617
aI809
aa(lp1618
Vasian
p1619
aI810
aa(lp1620
Vblonde
p1621
aI811
aa(lp1622
Vwebdesign
p1623
aI812
aa(lp1624
Vcheers
p1625
aI813
aa(lp1626
Vthecallcentre
p1627
aI814
aa(lp1628
Vrevolution
p1629
aI815
aa(lp1630
Vartist
p1631
aI816
aa(lp1632
Vdivypotahasnofriends
p1633
aI817
aa(lp1634
Vbreaking
p1635
aI818
aa(lp1636
Vpjnet
p1637
aI819
aa(lp1638
Vhumor
p1639
aI820
aa(lp1640
Vcrazymofo
p1641
aI821
aa(lp1642
Vbadass
p1643
aI822
aa(lp1644
Vwut
p1645
aI823
aa(lp1646
Vrolandgarros
p1647
aI824
aa(lp1648
Vmistresses
p1649
aI825
aa(lp1650
Vdreambig
p1651
aI826
aa(lp1652
Vcongrats
p1653
aI827
aa(lp1654
Vmets
p1655
aI828
aa(lp1656
Valways
p1657
aI829
aa(lp1658
Venergy
p1659
aI830
aa(lp1660
Vcmtawards
p1661
aI831
aa(lp1662
Vheatvpacers
p1663
aI832
aa(lp1664
Vcats
p1665
aI833
aa(lp1666
Vgo
p1667
aI834
aa(lp1668
Vattraction
p1669
aI835
aa(lp1670
Vbluejays
p1671
aI836
aa(lp1672
Vlebron
p1673
aI837
aa(lp1674
Vteam
p1675
aI838
aa(lp1676
Vtbt
p1677
aI839
aa(lp1678
Vtan
p1679
aI840
aa(lp1680
Vwelcometweet
p1681
aI841
aa(lp1682
Vr_family
p1683
aI842
aa(lp1684
Vbliss
p1685
aI843
aa(lp1686
Vreds
p1687
aI844
aa(lp1688
Vmedia
p1689
aI845
aa(lp1690
Vold
p1691
aI846
aa(lp1692
Vny
p1693
aI847
aa(lp1694
Vduh
p1695
aI848
aa(lp1696
Vrunwaykate
p1697
aI849
aa(lp1698
Vclassy
p1699
aI850
aa(lp1700
Velectronics
p1701
aI851
aa(lp1702
Vinstantfollow
p1703
aI852
aa(lp1704
Vlmfao
p1705
aI853
aa(lp1706
Vislam
p1707
aI854
aa(lp1708
Vdream
p1709
aI855
aa(lp1710
Vtits
p1711
aI856
aa(lp1712
Vk
aI857
aa(lp1713
Vpray
p1714
aI858
aa(lp1715
Vhealthcare
p1716
aI859
aa(lp1717
Vworldenvironmentday
p1718
aI860
aa(lp1719
Vbrother
p1720
aI861
aa(lp1721
Vdiet
p1722
aI862
aa(lp1723
Vorphanblack
p1724
aI863
aa(lp1725
Vchurch
p1726
aI864
aa(lp1727
Vlonely
p1728
aI865
aa(lp1729
Vtaksim
p1730
aI866
aa(lp1731
Vthepurge
p1732
aI867
aa(lp1733
Vapprentice
p1734
aI868
aa(lp1735
Vhappysonnamsin
p1736
aI869
aa(lp1737
Vawk
p1738
aI870
aa(lp1739
Viran
p1740
aI871
aa(lp1741
Vstarwars
p1742
aI872
aa(lp1743
Vand
p1744
aI873
aa(lp1745
Vatlanta
p1746
aI874
aa(lp1747
Vmourinho
p1748
aI875
aa(lp1749
Vshazam
p1750
aI876
aa(lp1751
Vcomedy
p1752
aI877
aa(lp1753
Vdrinks
p1754
aI878
aa(lp1755
Vteamnosleep
p1756
aI879
aa(lp1757
Vsfgiants
p1758
aI880
aa(lp1759
Vhope
p1760
aI881
aa(lp1761
Vtornado
p1762
aI882
aa(lp1763
Vios
p1764
aI883
aa(lp1765
Vdownloadunionjcarryyouatmidnight
p1766
aI884
aa(lp1767
Vnotreally
p1768
aI885
aa(lp1769
Vtruelove
p1770
aI886
aa(lp1771
Vyjhd
p1772
aI887
aa(lp1773
Vsocial
p1774
aI888
aa(lp1775
Vfinance
p1776
aI889
aa(lp1777
Vdemi
p1778
aI890
aa(lp1779
Vstarving
p1780
aI891
aa(lp1781
Vgh
p1782
aI892
aa(lp1783
Vclass
p1784
aI893
aa(lp1785
Vbike
p1786
aI894
aa(lp1787
Vtune
p1788
aI895
aa(lp1789
Vpr
p1790
aI896
aa(lp1791
Vlost
p1792
aI897
aa(lp1793
Vhr
p1794
aI898
aa(lp1795
Vdontbethatguy
p1796
aI899
aa(lp1797
Vengvnz
p1798
aI900
aa(lp1799
Vcloud
p1800
aI901
aa(lp1801
Vtop
p1802
aI902
aa(lp1803
Vkings
p1804
aI903
aa(lp1805
Vanghami
p1806
aI904
aa(lp1807
Vyourewelcome
p1808
aI905
aa(lp1809
Vmsteched
p1810
aI906
aa(lp1811
Vrevenge
p1812
aI907
aa(lp1813
Vbitcoin
p1814
aI908
aa(lp1815
Vpizza
p1816
aI909
aa(lp1817
Vbelieber
p1818
aI910
aa(lp1819
Vrugby
p1820
aI911
aa(lp1821
Viwish
p1822
aI912
aa(lp1823
Vlatepost
p1824
aI913
aa(lp1825
Vthekilling
p1826
aI914
aa(lp1827
Vrp
p1828
aI915
aa(lp1829
Vsmaccessorieschicserpetra
p1830
aI916
aa(lp1831
Vfeel
p1832
aI917
aa(lp1833
Vpriorities
p1834
aI918
aa(lp1835
Vto
p1836
aI919
aa(lp1837
Vl4l
p1838
aI920
aa(lp1839
Vout
p1840
aI921
aa(lp1841
Vlucky
p1842
aI922
aa(lp1843
Vclutch
p1844
aI923
aa(lp1845
Vebook
p1846
aI924
aa(lp1847
Vjhalak
p1848
aI925
aa(lp1849
Vwith
p1850
aI926
aa(lp1851
Vyoga
p1852
aI927
aa(lp1853
Vjokes
p1854
aI928
aa(lp1855
Vvoicetop6
p1856
aI929
aa(lp1857
Vchillin
p1858
aI930
aa(lp1859
Vmexico
p1860
aI931
aa(lp1861
Vchelsea
p1862
aI932
aa(lp1863
Vbuzzing
p1864
aI933
aa(lp1865
Vaskmario
p1866
aI934
aa(lp1867
Vfriday
p1868
aI935
aa(lp1869
Vcareer
p1870
aI936
aa(lp1871
Vjoke
p1872
aI937
aa(lp1873
Vtransformationtuesday
p1874
aI938
aa(lp1875
Vmanofsteel
p1876
aI939
aa(lp1877
Vlanimisaluchaandbambooconcerts
p1878
aI940
aa(lp1879
Vfarmville
p1880
aI941
aa(lp1881
Vnerd
p1882
aI942
aa(lp1883
Ventrepreneur
p1884
aI943
aa(lp1885
Vsecurity
p1886
aI944
aa(lp1887
Vuae
p1888
aI945
aa(lp1889
Vscore
p1890
aI946
aa(lp1891
Vgoheat
p1892
aI947
aa(lp1893
Vyahoo
p1894
aI948
aa(lp1895
Vhappy28thparkyuchun
p1896
aI949
aa(lp1897
Vphilly
p1898
aI950
aa(lp1899
Vsong
p1900
aI951
aa(lp1901
Vgarden
p1902
aI952
aa(lp1903
V\uc2a4\ubaa8\ud0a4\uac78
p1904
aI953
aa(lp1905
Vauto
p1906
aI954
aa(lp1907
Vviggle
p1908
aI955
aa(lp1909
Vgermany
p1910
aI956
aa(lp1911
Vmcountdownina
p1912
aI957
aa(lp1913
Veyes
p1914
aI958
aa(lp1915
Vgaming
p1916
aI959
aa(lp1917
Vbad
p1918
aI960
aa(lp1919
Vpeople
p1920
aI961
aa(lp1921
Vefc
p1922
aI962
aa(lp1923
Vbraveng
p1924
aI963
aa(lp1925
Vig
p1926
aI964
aa(lp1927
Vdj
p1928
aI965
aa(lp1929
Vdontcare
p1930
aI966
aa(lp1931
Vbeats
p1932
aI967
aa(lp1933
Vmancrushmonday
p1934
aI968
aa(lp1935
Vtigers
p1936
aI969
aa(lp1937
Vvegan
p1938
aI970
aa(lp1939
Vbooty
p1940
aI971
aa(lp1941
Vchloe
p1942
aI972
aa(lp1943
Vgtfo
p1944
aI973
aa(lp1945
Vcold
p1946
aI974
aa(lp1947
Vfake
p1948
aI975
aa(lp1949
Varresteddevelopment
p1950
aI976
aa(lp1951
Vha
p1952
aI977
aa(lp1953
Vnewjoshjoeymusic
p1954
aI978
aa(lp1955
Vcl
p1956
aI979
aa(lp1957
Vforreal
p1958
aI980
aa(lp1959
Vdress
p1960
aI981
aa(lp1961
Vwillsingefollowspree
p1962
aI982
aa(lp1963
Vtoocute
p1964
aI983
aa(lp1965
Vbeliebersdayaroundtheworld
p1966
aI984
aa(lp1967
Vuswnt
p1968
aI985
aa(lp1969
Vstoked
p1970
aI986
aa(lp1971
Vbeyonce
p1972
aI987
aa(lp1973
Vhandmadebot
p1974
aI988
aa(lp1975
Vfrance
p1976
aI989
aa(lp1977
Vbelievetour
p1978
aI990
aa(lp1979
V6daystil24seven
p1980
aI991
aa(lp1981
Vtips
p1982
aI992
aa(lp1983
Vkuwtk8
p1984
aI993
aa(lp1985
Vtraining
p1986
aI994
aa(lp1987
Vmentionaturnoff
p1988
aI995
aa(lp1989
Vamwriting
p1990
aI996
aa(lp1991
Vfpsf
p1992
aI997
aa(lp1993
Vdiy
p1994
aI998
aa(lp1995
Vheart
p1996
aI999
aa(lp1997
Vyikes
p1998
aI1000
aa(lp1999
Vearthquake
p2000
aI1001
aa(lp2001
V\ud558\ub2c8\ubfd0
p2002
aI1002
aa(lp2003
Vsytycd
p2004
aI1003
aa(lp2005
Vnolie
p2006
aI1004
aa(lp2007
Vcountry
p2008
aI1005
aa(lp2009
Vgift
p2010
aI1006
aa(lp2011
Vdumbass
p2012
aI1007
aa(lp2013
Vcnn
p2014
aI1008
aa(lp2015
Vbeast
p2016
aI1009
aa(lp2017
Vdisappointed
p2018
aI1010
aa(lp2019
Vworthit
p2020
aI1011
aa(lp2021
Vgenius
p2022
aI1012
aa(lp2023
Vreading
p2024
aI1013
aa(lp2025
Vdetermined
p2026
aI1014
aa(lp2027
Vlions2013
p2028
aI1015
aa(lp2029
Vpickone
p2030
aI1016
aa(lp2031
Vpower
p2032
aI1017
aa(lp2033
Vaskjosh
p2034
aI1018
aa(lp2035
Vpetpeeve
p2036
aI1019
aa(lp2037
V24seven
p2038
aI1020
aa(lp2039
Vembarrassing
p2040
aI1021
aa(lp2041
Vhalamadrid
p2042
aI1022
aa(lp2043
Vyeg
p2044
aI1023
aa(lp2045
Vokwx
p2046
aI1024
aa(lp2047
Vdetroit
p2048
aI1025
aa(lp2049
Vstlcards
p2050
aI1026
aa(lp2051
Vinc
p2052
aI1027
aa(lp2053
Vseattle
p2054
aI1028
aa(lp2055
Vfatty
p2056
aI1029
aa(lp2057
Vmtv
p2058
aI1030
aa(lp2059
Vgopacers
p2060
aI1031
aa(lp2061
Vstress
p2062
aI1032
aa(lp2063
Vmom
p2064
aI1033
aa(lp2065
Vvideos
p2066
aI1034
aa(lp2067
Vteamretweet
p2068
aI1035
aa(lp2069
Vt
aI1036
aa(lp2070
Vhi
p2071
aI1037
aa(lp2072
Vplayoffs
p2073
aI1038
aa(lp2074
Vpacernation
p2075
aI1039
aa(lp2076
Vcandycrush
p2077
aI1040
aa(lp2078
Vedutech
p2079
aI1041
aa(lp2080
Vinstaphoto
p2081
aI1042
aa(lp2082
Vs
aI1043
aa(lp2083
Vprayer
p2084
aI1044
aa(lp2085
Vhappygirl
p2086
aI1045
aa(lp2087
Vthis
p2088
aI1046
aa(lp2089
Vinstalove
p2090
aI1047
aa(lp2091
Vdrawing
p2092
aI1048
aa(lp2093
Vbesties
p2094
aI1049
aa(lp2095
Vhowtogetablackgirl
p2096
aI1050
aa(lp2097
Voverit
p2098
aI1051
aa(lp2099
Vtflers
p2100
aI1052
aa(lp2101
Vhappydays
p2102
aI1053
aa(lp2103
Vunionjgoshtwitcam
p2104
aI1054
aa(lp2105
Vgrind
p2106
aI1055
aa(lp2107
Vmetal
p2108
aI1056
aa(lp2109
Vwoo
p2110
aI1057
aa(lp2111
Vnuffsaid
p2112
aI1058
aa(lp2113
Vhmm
p2114
aI1059
aa(lp2115
Vcountdown
p2116
aI1060
aa(lp2117
Vsuryaray
p2118
aI1061
aa(lp2119
Vwhatislife
p2120
aI1062
aa(lp2121
Vinstafood
p2122
aI1063
aa(lp2123
Vyyc
p2124
aI1064
aa(lp2125
Vmaxvip
p2126
aI1065
aa(lp2127
Vaskmadisonpettis
p2128
aI1066
aa(lp2129
Vadaywithoutinternet
p2130
aI1067
aa(lp2131
Vfishing
p2132
aI1068
aa(lp2133
Vundermybed
p2134
aI1069
aa(lp2135
Vflashback
p2136
aI1070
aa(lp2137
Vlovinglife
p2138
aI1071
aa(lp2139
Vboo
p2140
aI1072
aa(lp2141
Vanimals
p2142
aI1073
aa(lp2143
Vnetflix
p2144
aI1074
aa(lp2145
Vlow
p2146
aI1075
aa(lp2147
Vdrwho
p2148
aI1076
aa(lp2149
Vmp3
p2150
aI1077
aa(lp2151
Vedtech
p2152
aI1078
aa(lp2153
Vbible
p2154
aI1079
aa(lp2155
Vsuaju
p2156
aI1080
aa(lp2157
Vvirgos
p2158
aI1081
aa(lp2159
Vmixtape
p2160
aI1082
aa(lp2161
Vweightloss
p2162
aI1083
aa(lp2163
Vwhataboutlove
p2164
aI1084
aa(lp2165
Vloner
p2166
aI1085
aa(lp2167
Vmcfc
p2168
aI1086
aa(lp2169
Vsydney
p2170
aI1087
aa(lp2171
Vokc
p2172
aI1088
aa(lp2173
Viloveit
p2174
aI1089
aa(lp2175
Vjs
p2176
aI1090
aa(lp2177
Vlifeisgood
p2178
aI1091
aa(lp2179
Vclouds
p2180
aI1092
aa(lp2181
Vneveragain
p2182
aI1093
aa(lp2183
Vhappy7thanniversaryelf
p2184
aI1094
aa(lp2185
Vindie
p2186
aI1095
aa(lp2187
Vcompetition
p2188
aI1096
aa(lp2189
Vdallas
p2190
aI1097
aa(lp2191
Vcreepy
p2192
aI1098
aa(lp2193
Vtherainsofcastamere
p2194
aI1099
aa(lp2195
Vifthepurgewasreal
p2196
aI1100
aa(lp2197
Vecf
p2198
aI1101
aa(lp2199
Vthatisall
p2200
aI1102
aa(lp2201
Vowychat
p2202
aI1103
aa(lp2203
Vinstacollage
p2204
aI1104
aa(lp2205
Vijs
p2206
aI1105
aa(lp2207
Vunreal
p2208
aI1106
aa(lp2209
Vweirdo
p2210
aI1107
aa(lp2211
Vneversaynever
p2212
aI1108
aa(lp2213
Vsotrue
p2214
aI1109
aa(lp2215
Vpic
p2216
aI1110
aa(lp2217
Vweak
p2218
aI1111
aa(lp2219
Vvotebillysimpson
p2220
aI1112
aa(lp2221
Vtweetyourweakness
p2222
aI1113
aa(lp2223
Vboxing
p2224
aI1114
aa(lp2225
Vnowfollowing
p2226
aI1115
aa(lp2227
Vnigeria
p2228
aI1116
aa(lp2229
Vcontest
p2230
aI1117
aa(lp2231
Vmma
p2232
aI1118
aa(lp2233
Vprevioustweet
p2234
aI1119
aa(lp2235
Vdaymade
p2236
aI1120
aa(lp2237
Vsingapore
p2238
aI1121
aa(lp2239
Vlosangeles
p2240
aI1122
aa(lp2241
Vfuntimes
p2242
aI1123
aa(lp2243
Vcoupon
p2244
aI1124
aa(lp2245
Vwinner
p2246
aI1125
aa(lp2247
Vidgaf
p2248
aI1126
aa(lp2249
Vwomancrushwednesday
p2250
aI1127
aa(lp2251
Velectronic
p2252
aI1128
aa(lp2253
Vfriendship
p2254
aI1129
aa(lp2255
Vsunburn
p2256
aI1130
aa(lp2257
Vsoproud
p2258
aI1131
aa(lp2259
Vcomrades2013
p2260
aI1132
aa(lp2261
Vfit
p2262
aI1133
aa(lp2263
Vgutted
p2264
aI1134
aa(lp2265
Vorlando
p2266
aI1135
aa(lp2267
Vdigital
p2268
aI1136
aa(lp2269
Vinsomnia
p2270
aI1137
aa(lp2271
Vprogress
p2272
aI1138
aa(lp2273
Vgirlproblems
p2274
aI1139
aa(lp2275
Vcsrracing
p2276
aI1140
aa(lp2277
Vhowtokillavampire
p2278
aI1141
aa(lp2279
Vdreams
p2280
aI1142
aa(lp2281
Vfuture
p2282
aI1143
aa(lp2283
Vpgt4finale
p2284
aI1144
aa(lp2285
Vswimming
p2286
aI1145
aa(lp2287
Vstaystrong
p2288
aI1146
aa(lp2289
Vtraffic
p2290
aI1147
aa(lp2291
Vsoundofchange
p2292
aI1148
aa(lp2293
Vdeitywars
p2294
aI1149
aa(lp2295
Vhate
p2296
aI1150
aa(lp2297
Vcrossfit
p2298
aI1151
aa(lp2299
Vtweegram
p2300
aI1152
aa(lp2301
Vtpheart
p2302
aI1153
aa(lp2303
Vlaw
p2304
aI1154
aa(lp2305
Vasktoby
p2306
aI1155
aa(lp2307
Vfrustrated
p2308
aI1156
aa(lp2309
Vmeow
p2310
aI1157
aa(lp2311
Vbringiton
p2312
aI1158
aa(lp2313
Vbrooklyn
p2314
aI1159
aa(lp2315
Vnbd
p2316
aI1160
aa(lp2317
Vnashville
p2318
aI1161
aa(lp2319
Vlikeaboss
p2320
aI1162
aa(lp2321
Vseniors
p2322
aI1163
aa(lp2323
Vpreach
p2324
aI1164
aa(lp2325
Vuoeno
p2326
aI1165
aa(lp2327
Vstartrek
p2328
aI1166
aa(lp2329
Vebaymobile
p2330
aI1167
aa(lp2331
Vready
p2332
aI1168
aa(lp2333
Vmybad
p2334
aI1169
aa(lp2335
Vspain
p2336
aI1170
aa(lp2337
Vdays
p2338
aI1171
aa(lp2339
Vnorthamerica
p2340
aI1172
aa(lp2341
Vhappytweet
p2342
aI1173
aa(lp2343
Vwhiletwitterwasdown
p2344
aI1174
aa(lp2345
Vcan
p2346
aI1175
aa(lp2347
Vbitches
p2348
aI1176
aa(lp2349
Vbornsinner
p2350
aI1177
aa(lp2351
Vgetyoboobsout
p2352
aI1178
aa(lp2353
Vwordpress
p2354
aI1179
aa(lp2355
Vretail
p2356
aI1180
aa(lp2357
Vletsgetit
p2358
aI1181
aa(lp2359
Vtanning
p2360
aI1182
aa(lp2361
Venglish
p2362
aI1183
aa(lp2363
Vindycar
p2364
aI1184
aa(lp2365
Vteenwolftonight
p2366
aI1185
aa(lp2367
Vhashtagz
p2368
aI1186
aa(lp2369
Vfuckyeah
p2370
aI1187
aa(lp2371
Vhardcore
p2372
aI1188
aa(lp2373
Vwalking
p2374
aI1189
aa(lp2375
Vsmallbiz
p2376
aI1190
aa(lp2377
Vlongday
p2378
aI1191
aa(lp2379
Vteamiphone
p2380
aI1192
aa(lp2381
Vmanning
p2382
aI1193
aa(lp2383
Vprocrastination
p2384
aI1194
aa(lp2385
Viphonesia
p2386
aI1195
aa(lp2387
Vnationaljasminatorday
p2388
aI1196
aa(lp2389
Vanonymous
p2390
aI1197
aa(lp2391
Vcrowdfunding
p2392
aI1198
aa(lp2393
Vasap
p2394
aI1199
aa(lp2395
Vshame
p2396
aI1200
aa(lp2397
Vsummerjam
p2398
aI1201
aa(lp2399
Vreplytweet
p2400
aI1202
aa(lp2401
Vasktwitter
p2402
aI1203
aa(lp2403
Vhardwork
p2404
aI1204
aa(lp2405
Vhotel
p2406
aI1205
aa(lp2407
Vathletics
p2408
aI1206
aa(lp2409
Vbedtime
p2410
aI1207
aa(lp2411
Vexo_xoxo
p2412
aI1208
aa(lp2413
Vnoworries
p2414
aI1209
aa(lp2415
Vopturkey
p2416
aI1210
aa(lp2417
Vdirengaziparki
p2418
aI1211
aa(lp2419
Vtx
p2420
aI1212
aa(lp2421
Vwatchout
p2422
aI1213
aa(lp2423
Vsea
p2424
aI1214
aa(lp2425
Vnotfair
p2426
aI1215
aa(lp2427
Vfx
p2428
aI1216
aa(lp2429
Vchicken
p2430
aI1217
aa(lp2431
Vnotgood
p2432
aI1218
aa(lp2433
Vhumpday
p2434
aI1219
aa(lp2435
Vmygirlfriendnotallowed
p2436
aI1220
aa(lp2437
Vjustkidding
p2438
aI1221
aa(lp2439
Veurope
p2440
aI1222
aa(lp2441
Vfamilytime
p2442
aI1223
aa(lp2443
Vdumb
p2444
aI1224
aa(lp2445
Vfollowmejc
p2446
aI1225
aa(lp2447
Vusavger
p2448
aI1226
aa(lp2449
Vfat
p2450
aI1227
aa(lp2451
Vyeah
p2452
aI1228
aa(lp2453
Vccot
p2454
aI1229
aa(lp2455
Vdirectioner
p2456
aI1230
aa(lp2457
Vbeastmode
p2458
aI1231
aa(lp2459
Varchitecture
p2460
aI1232
aa(lp2461
Vkiss
p2462
aI1233
aa(lp2463
Vsore
p2464
aI1234
aa(lp2465
Vmen
p2466
aI1235
aa(lp2467
Vorioles
p2468
aI1236
aa(lp2469
Vcollectibles
p2470
aI1237
aa(lp2471
Vpoetry
p2472
aI1238
aa(lp2473
Vindian
p2474
aI1239
aa(lp2475
Vneedsleep
p2476
aI1240
aa(lp2477
Vnats
p2478
aI1241
aa(lp2479
Vindonesia
p2480
aI1242
aa(lp2481
Vdirengezipark
p2482
aI1243
aa(lp2483
Vnewlangitmusik
p2484
aI1244
aa(lp2485
Vbig
p2486
aI1245
aa(lp2487
Vtvd
p2488
aI1246
aa(lp2489
Vlionstour
p2490
aI1247
aa(lp2491
Vbeliebersarewithyou
p2492
aI1248
aa(lp2493
Vangels
p2494
aI1249
aa(lp2495
Vrihanna
p2496
aI1250
aa(lp2497
Vinternet
p2498
aI1251
aa(lp2499
Vuptheblues
p2500
aI1252
aa(lp2501
Vheatvspacers
p2502
aI1253
aa(lp2503
Vtittytuesday
p2504
aI1254
aa(lp2505
Vevent
p2506
aI1255
aa(lp2507
Vjazz
p2508
aI1256
aa(lp2509
Vsummerslasthurrah
p2510
aI1257
aa(lp2511
Vfitstats
p2512
aI1258
aa(lp2513
Vthatpower
p2514
aI1259
aa(lp2515
Vdrink
p2516
aI1260
aa(lp2517
Vfemalepains
p2518
aI1261
aa(lp2519
Vobffor3peat
p2520
aI1262
aa(lp2521
Vflower
p2522
aI1263
aa(lp2523
Vletsdothis
p2524
aI1264
aa(lp2525
Vnutrition
p2526
aI1265
aa(lp2527
Vnatural
p2528
aI1266
aa(lp2529
Vsmiles
p2530
aI1267
aa(lp2531
Vftm
p2532
aI1268
aa(lp2533
Vawks
p2534
aI1269
aa(lp2535
Vof
p2536
aI1270
aa(lp2537
Vcousins
p2538
aI1271
aa(lp2539
Vnowlistening
p2540
aI1272
aa(lp2541
Vfollowforfollow
p2542
aI1273
aa(lp2543
Vr
aI1274
aa(lp2544
Vridiculous
p2545
aI1275
aa(lp2546
Vnaptime
p2547
aI1276
aa(lp2548
Vsupernatural
p2549
aI1277
aa(lp2550
Vpainting
p2551
aI1278
aa(lp2552
Vhahaha
p2553
aI1279
aa(lp2554
Vasshole
p2555
aI1280
aa(lp2556
Vruntastic
p2557
aI1281
aa(lp2558
Vpointless
p2559
aI1282
aa(lp2560
Vhateit
p2561
aI1283
aa(lp2562
Vboys
p2563
aI1284
aa(lp2564
Vaintnobodygottimeforthat
p2565
aI1285
aa(lp2566
Vbed
p2567
aI1286
aa(lp2568
Vnothingtolosetonumber1
p2569
aI1287
aa(lp2570
Vcousin
p2571
aI1288
aa(lp2572
Vmancandymonday
p2573
aI1289
aa(lp2574
Vgoodbye
p2575
aI1290
aa(lp2576
Vturndownforwhat
p2577
aI1291
aa(lp2578
Vtea
p2579
aI1292
aa(lp2580
Vviggletv
p2581
aI1293
aa(lp2582
Vsouthafrica
p2583
aI1294
aa(lp2584
Vlastnight
p2585
aI1295
aa(lp2586
Vfacepalm
p2587
aI1296
aa(lp2588
Vyuck
p2589
aI1297
aa(lp2590
Vnonewfriends
p2591
aI1298
aa(lp2592
Vkarma
p2593
aI1299
aa(lp2594
Vbucketlist
p2595
aI1300
aa(lp2596
Vgirlfriend
p2597
aI1301
aa(lp2598
Vprincess
p2599
aI1302
aa(lp2600
Vsub
p2601
aI1303
aa(lp2602
Vtunein
p2603
aI1304
aa(lp2604
Vteamblake
p2605
aI1305
aa(lp2606
Vhero
p2607
aI1306
aa(lp2608
Vhappyhyunjoongday
p2609
aI1307
aa(lp2610
Vslut
p2611
aI1308
aa(lp2612
Vatheism
p2613
aI1309
aa(lp2614
Vca
p2615
aI1310
aa(lp2616
Vturnt
p2617
aI1311
aa(lp2618
Vheyboo
p2619
aI1312
aa(lp2620
Vtumblr
p2621
aI1313
aa(lp2622
Vparenting
p2623
aI1314
aa(lp2624
Vimdone
p2625
aI1315
aa(lp2626
Vsosad
p2627
aI1316
aa(lp2628
Vtheapprenticeasia
p2629
aI1317
aa(lp2630
Vstartups
p2631
aI1318
aa(lp2632
Vgodbless
p2633
aI1319
aa(lp2634
Vmasterchefau
p2635
aI1320
aa(lp2636
Vsummerfun
p2637
aI1321
aa(lp2638
Vyellow
p2639
aI1322
aa(lp2640
Vchange
p2641
aI1323
aa(lp2642
Vsadface
p2643
aI1324
aa(lp2644
Vgeek
p2645
aI1325
aa(lp2646
Vweed
p2647
aI1326
aa(lp2648
Vlies
p2649
aI1327
aa(lp2650
Vmmk
p2651
aI1328
aa(lp2652
Vrussia
p2653
aI1329
aa(lp2654
Vhannibal
p2655
aI1330
aa(lp2656
Vstocks
p2657
aI1331
aa(lp2658
Vthingsnottodoatafootballmatch
p2659
aI1332
aa(lp2660
Vclothing
p2661
aI1333
aa(lp2662
Vroyals
p2663
aI1334
aa(lp2664
Vynwa
p2665
aI1335
aa(lp2666
Vinnovation
p2667
aI1336
aa(lp2668
Vlebronranlike
p2669
aI1337
aa(lp2670
Vfor
p2671
aI1338
aa(lp2672
Vhello
p2673
aI1339
aa(lp2674
Vjfb
p2675
aI1340
aa(lp2676
Vwearerushers
p2677
aI1341
aa(lp2678
Vluxury
p2679
aI1342
aa(lp2680
Vmuchneeded
p2681
aI1343
aa(lp2682
Vlinux
p2683
aI1344
aa(lp2684
Vnasty
p2685
aI1345
aa(lp2686
Vtrust
p2687
aI1346
aa(lp2688
Vphotoshoot
p2689
aI1347
aa(lp2690
Vjordan
p2691
aI1348
aa(lp2692
Vchilling
p2693
aI1349
aa(lp2694
Vsunglasses
p2695
aI1350
aa(lp2696
Vfmsphotoaday
p2697
aI1351
aa(lp2698
V1d
p2699
aI1352
aa(lp2700
Vexercise
p2701
aI1353
aa(lp2702
Vgospursgo
p2703
aI1354
aa(lp2704
Vlifestyle
p2705
aI1355
aa(lp2706
Vlatergram
p2707
aI1356
aa(lp2708
Vyawn
p2709
aI1357
aa(lp2710
Vyouahoebecause
p2711
aI1358
aa(lp2712
Vanime
p2713
aI1359
aa(lp2714
Vvs
p2715
aI1360
aa(lp2716
Vibiza
p2717
aI1361
aa(lp2718
Vifugotoablackpersonparty
p2719
aI1362
aa(lp2720
Vnothappy
p2721
aI1363
aa(lp2722
Vdaftpunk
p2723
aI1364
aa(lp2724
Vbarcelona
p2725
aI1365
aa(lp2726
Vproinstadotcom
p2727
aI1366
aa(lp2728
Vnhlplayoffs
p2729
aI1367
aa(lp2730
Vvolunteersweek
p2731
aI1368
aa(lp2732
Vss5ina
p2733
aI1369
aa(lp2734
Vdisgusting
p2735
aI1370
aa(lp2736
Vblackberry
p2737
aI1371
aa(lp2738
Vwe
p2739
aI1372
aa(lp2740
Vmilf
p2741
aI1373
aa(lp2742
Vpinterest
p2743
aI1374
aa(lp2744
Vps3
p2745
aI1375
aa(lp2746
Vdmv
p2747
aI1376
aa(lp2748
Vphotos
p2749
aI1377
aa(lp2750
Vdeep
p2751
aI1378
aa(lp2752
Vpride
p2753
aI1379
aa(lp2754
Vballislife
p2755
aI1380
aa(lp2756
Vcinema
p2757
aI1381
aa(lp2758
Vdrake
p2759
aI1382
aa(lp2760
Vdancemoms
p2761
aI1383
aa(lp2762
Vmotivated
p2763
aI1384
aa(lp2764
Vmanchester
p2765
aI1385
aa(lp2766
Vjakarta
p2767
aI1386
aa(lp2768
Vpirates
p2769
aI1387
aa(lp2770
Vwaiting
p2771
aI1388
aa(lp2772
Vchangebeginswithme
p2773
aI1389
aa(lp2774
Vlasvegas
p2775
aI1390
aa(lp2776
Vcooking
p2777
aI1391
aa(lp2778
Vtonight
p2779
aI1392
aa(lp2780
Vjpnvaus
p2781
aI1393
aa(lp2782
Vphilippines
p2783
aI1394
aa(lp2784
Vonelove
p2785
aI1395
aa(lp2786
Vcomeon
p2787
aI1396
aa(lp2788
Vbreakingnews
p2789
aI1397
aa(lp2790
Vliestoldontwitter
p2791
aI1398
aa(lp2792
Vfitfam
p2793
aI1399
aa(lp2794
Vespn
p2795
aI1400
aa(lp2796
Vcommunity
p2797
aI1401
aa(lp2798
Vhavesandhavenots
p2799
aI1402
aa(lp2800
Vteenwolfseason3
p2801
aI1403
aa(lp2802
Vsiguemeytesigo
p2803
aI1404
aa(lp2804
Vfavorites
p2805
aI1405
aa(lp2806
Vthinking
p2807
aI1406
aa(lp2808
Vspring
p2809
aI1407
aa(lp2810
Vbostonstrong
p2811
aI1408
aa(lp2812
Vows
p2813
aI1409
aa(lp2814
Vreddit
p2815
aI1410
aa(lp2816
Veasy
p2817
aI1411
aa(lp2818
Verdogan
p2819
aI1412
aa(lp2820
Vphone
p2821
aI1413
aa(lp2822
Vconfessionnight
p2823
aI1414
aa(lp2824
Vindians
p2825
aI1415
aa(lp2826
Vnofriends
p2827
aI1416
aa(lp2828
Vdad
p2829
aI1417
aa(lp2830
Vimdb
p2831
aI1418
aa(lp2832
Vrnb
p2833
aI1419
aa(lp2834
Vmccann
p2835
aI1420
aa(lp2836
Vimissyou
p2837
aI1421
aa(lp2838
Vnobueno
p2839
aI1422
aa(lp2840
Vkawaii_pet
p2841
aI1423
aa(lp2842
Vttot
p2843
aI1424
aa(lp2844
Vifollowall
p2845
aI1425
aa(lp2846
Vhappyajday
p2847
aI1426
aa(lp2848
Vsilly
p2849
aI1427
aa(lp2850
Vinternship
p2851
aI1428
aa(lp2852
Vjoseof7days
p2853
aI1429
aa(lp2854
Vhitthefloor
p2855
aI1430
aa(lp2856
Vdirengezipark\u0131
p2857
aI1431
aa(lp2858
Vreview
p2859
aI1432
aa(lp2860
Vbigdata
p2861
aI1433
aa(lp2862
Vgifts
p2863
aI1434
aa(lp2864
Vdealwithit
p2865
aI1435
aa(lp2866
Vcareers
p2867
aI1436
aa(lp2868
Vaddiction
p2869
aI1437
aa(lp2870
Vwhynot
p2871
aI1438
aa(lp2872
Vcity
p2873
aI1439
aa(lp2874
Vchristian
p2875
aI1440
aa(lp2876
Vchildren
p2877
aI1441
aa(lp2878
Vcomics
p2879
aI1442
aa(lp2880
Vremake
p2881
aI1443
aa(lp2882
Vbuyhercrazy
p2883
aI1444
aa(lp2884
Vidiots
p2885
aI1445
aa(lp2886
Vhockey
p2887
aI1446
aa(lp2888
Vlebanon
p2889
aI1447
aa(lp2890
Vpause
p2891
aI1448
aa(lp2892
Vtrading
p2893
aI1449
aa(lp2894
Vagain
p2895
aI1450
aa(lp2896
Vwisewords
p2897
aI1451
aa(lp2898
Vbrewers
p2899
aI1452
aa(lp2900
Vbabe
p2901
aI1453
aa(lp2902
Vbatman
p2903
aI1454
aa(lp2904
Vanal
p2905
aI1455
aa(lp2906
Vblackandwhite
p2907
aI1456
aa(lp2908
Vface
p2909
aI1457
aa(lp2910
Vcamera
p2911
aI1458
aa(lp2912
Vcastle
p2913
aI1459
aa(lp2914
Vthinkeatsave
p2915
aI1460
aa(lp2916
Vkenya
p2917
aI1461
aa(lp2918
Vwishmeluck
p2919
aI1462
aa(lp2920
Vfoodie
p2921
aI1463
aa(lp2922
Vretweets
p2923
aI1464
aa(lp2924
Vtalent
p2925
aI1465
aa(lp2926
Vclingon
p2927
aI1466
aa(lp2928
Vhurt
p2929
aI1467
aa(lp2930
Vbrilliant
p2931
aI1468
aa(lp2932
Vhawaii
p2933
aI1469
aa(lp2934
Vthewalkingdead
p2935
aI1470
aa(lp2936
Vholyshit
p2937
aI1471
aa(lp2938
Vrebel
p2939
aI1472
aa(lp2940
Vinstacool
p2941
aI1473
aa(lp2942
Vwakeup
p2943
aI1474
aa(lp2944
Vdirenankara
p2945
aI1475
aa(lp2946
Vlukebryan
p2947
aI1476
aa(lp2948
Vnojoke
p2949
aI1477
aa(lp2950
Vb
aI1478
aa(lp2951
Vsquad
p2952
aI1479
aa(lp2953
Vquoteoftheday
p2954
aI1480
aa(lp2955
Vall
p2956
aI1481
aa(lp2957
Vbacon
p2958
aI1482
aa(lp2959
Vbangbang
p2960
aI1483
aa(lp2961
Vnsw
p2962
aI1484
aa(lp2963
Vyesplease
p2964
aI1485
aa(lp2965
Vpicture
p2966
aI1486
aa(lp2967
Vcountrymusic
p2968
aI1487
aa(lp2969
Vhorror
p2970
aI1488
aa(lp2971
Vaustin
p2972
aI1489
aa(lp2973
Vloveya
p2974
aI1490
aa(lp2975
Vinsanity
p2976
aI1491
aa(lp2977
Vthatawkwardmoment
p2978
aI1492
aa(lp2979
Vcomeback
p2980
aI1493
aa(lp2981
Vprevtweet
p2982
aI1494
aa(lp2983
Vwhyme
p2984
aI1495
aa(lp2985
Vkards
p2986
aI1496
aa(lp2987
Vcheck
p2988
aI1497
aa(lp2989
Vlake
p2990
aI1498
aa(lp2991
Vpet
p2992
aI1499
aa(lp2993
Vmilitary
p2994
aI1500
aa(lp2995
Vglasses
p2996
aI1501
aa(lp2997
Veu
p2998
aI1502
aa(lp2999
Vmotogp
p3000
aI1503
aa(lp3001
Vblah
p3002
aI1504
aa(lp3003
Vpets
p3004
aI1505
aa(lp3005
Viomtt
p3006
aI1506
aa(lp3007
Vdon
p3008
aI1507
aa(lp3009
Vgetalife
p3010
aI1508
aa(lp3011
Vleavemealone
p3012
aI1509
aa(lp3013
Vchivslak
p3014
aI1510
aa(lp3015
Vconfession
p3016
aI1511
aa(lp3017
Vdeath
p3018
aI1512
aa(lp3019
Vfantasy
p3020
aI1513
aa(lp3021
Vkitty
p3022
aI1514
aa(lp3023
Viphone5
p3024
aI1515
aa(lp3025
Vnephew
p3026
aI1516
aa(lp3027
Vfollowmejai
p3028
aI1517
aa(lp3029
Vthissucks
p3030
aI1518
aa(lp3031
Vhow
p3032
aI1519
aa(lp3033
Vsaroohamalikfollowme
p3034
aI1520
aa(lp3035
Vnodaysoff
p3036
aI1521
aa(lp3037
Vcunt
p3038
aI1522
aa(lp3039
Vsuperman
p3040
aI1523
aa(lp3041
Vmusicmonday
p3042
aI1524
aa(lp3043
Vinfosec
p3044
aI1525
aa(lp3045
Vorganic
p3046
aI1526
aa(lp3047
Vguitar
p3048
aI1527
aa(lp3049
Vtaylorswift
p3050
aI1528
aa(lp3051
Vdrama
p3052
aI1529
aa(lp3053
Vmybaby
p3054
aI1530
aa(lp3055
Vabouttime
p3056
aI1531
aa(lp3057
Vcards
p3058
aI1532
aa(lp3059
Vadvertising
p3060
aI1533
aa(lp3061
Vchicserullyseschat
p3062
aI1534
aa(lp3063
Vlolz
p3064
aI1535
aa(lp3065
Vhype
p3066
aI1536
aa(lp3067
Vpurple
p3068
aI1537
aa(lp3069
Vgohawks
p3070
aI1538
aa(lp3071
Vlogic
p3072
aI1539
aa(lp3073
Vnever
p3074
aI1540
aa(lp3075
Vcubs
p3076
aI1541
aa(lp3077
Vfucked
p3078
aI1542
aa(lp3079
Vpark
p3080
aI1543
aa(lp3081
Vsike
p3082
aI1544
aa(lp3083
Vemotional
p3084
aI1545
aa(lp3085
Vwiseart
p3086
aI1546
aa(lp3087
Vblogtalkradio
p3088
aI1547
aa(lp3089
Vfoursquare
p3090
aI1548
aa(lp3091
Vinformation
p3092
aI1549
aa(lp3093
Vvip
p3094
aI1550
aa(lp3095
Vhdpalooza
p3096
aI1551
aa(lp3097
Vteamfollowwack
p3098
aI1552
aa(lp3099
Vbless
p3100
aI1553
aa(lp3101
Vis
p3102
aI1554
aa(lp3103
Vwild
p3104
aI1555
aa(lp3105
Vgokingsgo
p3106
aI1556
aa(lp3107
Vtruelife
p3108
aI1557
aa(lp3109
Vsandiego
p3110
aI1558
aa(lp3111
Vsenior
p3112
aI1559
aa(lp3113
Vfollowbackseguro
p3114
aI1560
aa(lp3115
Vnfb
p3116
aI1561
aa(lp3117
Vrelationships
p3118
aI1562
aa(lp3119
Vsofunny
p3120
aI1563
aa(lp3121
Vffs
p3122
aI1564
aa(lp3123
Vxbox
p3124
aI1565
aa(lp3125
Vtattoos
p3126
aI1566
aa(lp3127
Vkpop
p3128
aI1567
aa(lp3129
Valone
p3130
aI1568
aa(lp3131
Vrevision
p3132
aI1569
aa(lp3133
Vmac
p3134
aI1570
aa(lp3135
Vwearegezi
p3136
aI1571
aa(lp3137
Vexciting
p3138
aI1572
aa(lp3139
Vtfw
p3140
aI1573
aa(lp3141
Vorange
p3142
aI1574
aa(lp3143
Vpolice
p3144
aI1575
aa(lp3145
Vbahrain
p3146
aI1576
aa(lp3147
Vweb
p3148
aI1577
aa(lp3149
Vrecipe
p3150
aI1578
aa(lp3151
Vdepressed
p3152
aI1579
aa(lp3153
Vrandomthought
p3154
aI1580
aa(lp3155
Vmad
p3156
aI1581
aa(lp3157
Vpittsburgh
p3158
aI1582
aa(lp3159
Vmixlr
p3160
aI1583
aa(lp3161
Vsooners
p3162
aI1584
aa(lp3163
Vharrypotter
p3164
aI1585
aa(lp3165
Vugly
p3166
aI1586
aa(lp3167
Vdirectioners
p3168
aI1587
aa(lp3169
Vhangover
p3170
aI1588
aa(lp3171
Vproblems
p3172
aI1589
aa(lp3173
Vparadisetour
p3174
aI1590
aa(lp3175
Vbbl
p3176
aI1591
aa(lp3177
Vdenver
p3178
aI1592
aa(lp3179
Vigdaily
p3180
aI1593
aa(lp3181
Vdesperate
p3182
aI1594
aa(lp3183
Vunexpectedjoys
p3184
aI1595
aa(lp3185
Vrangers
p3186
aI1596
aa(lp3187
Vdayoff
p3188
aI1597
aa(lp3189
Vsummer2k13
p3190
aI1598
aa(lp3191
Vnomnom
p3192
aI1599
aa(lp3193
Vrunchat
p3194
aI1600
aa(lp3195
Vmqm
p3196
aI1601
aa(lp3197
Vshop
p3198
aI1602
aa(lp3199
Vlate
p3200
aI1603
aa(lp3201
Vminecraft
p3202
aI1604
aa(lp3203
Vrepeat
p3204
aI1605
aa(lp3205
Vsaidnooneever
p3206
aI1606
aa(lp3207
Vhmmm
p3208
aI1607
aa(lp3209
Vqueen
p3210
aI1608
aa(lp3211
Vkeepcalmand
p3212
aI1609
aa(lp3213
Vfunfact
p3214
aI1610
aa(lp3215
Vily
p3216
aI1611
aa(lp3217
Vqt
p3218
aI1612
aa(lp3219
Vup
p3220
aI1613
aa(lp3221
Vfeelinggood
p3222
aI1614
aa(lp3223
Vmissit
p3224
aI1615
aa(lp3225
Vthailand
p3226
aI1616
aa(lp3227
Vfish
p3228
aI1617
aa(lp3229
Vselfiesunday
p3230
aI1618
aa(lp3231
Vthegreatgatsby
p3232
aI1619
aa(lp3233
Vjoshandjoeykeek
p3234
aI1620
aa(lp3235
Vthestruggleisreal
p3236
aI1621
aa(lp3237
Vsaveme
p3238
aI1622
aa(lp3239
Vgaa
p3240
aI1623
aa(lp3241
V\ud3ec\ubbf8\ub2db
p3242
aI1624
aa(lp3243
Vmeme
p3244
aI1625
aa(lp3245
Vxoxo
p3246
aI1626
aa(lp3247
Vtmw
p3248
aI1627
aa(lp3249
Vguycode
p3250
aI1628
aa(lp3251
Vladies
p3252
aI1629
aa(lp3253
Vliterally
p3254
aI1630
aa(lp3255
Veconomy
p3256
aI1631
aa(lp3257
Vyoung
p3258
aI1632
aa(lp3259
Vcreep
p3260
aI1633
aa(lp3261
Vpop
p3262
aI1634
aa(lp3263
Vstandard
p3264
aI1635
aa(lp3265
Vindiana
p3266
aI1636
aa(lp3267
Vprayforparisjackson
p3268
aI1637
aa(lp3269
Vsweetdreams
p3270
aI1638
aa(lp3271
Vredgage
p3272
aI1639
aa(lp3273
Vfcblive
p3274
aI1640
aa(lp3275
Vc
aI1641
aa(lp3276
Vocean
p3277
aI1642
aa(lp3278
Vwoah
p3279
aI1643
aa(lp3280
Vengineering
p3281
aI1644
aa(lp3282
Vjunephotochallenge
p3283
aI1645
aa(lp3284
Vhungover
p3285
aI1646
aa(lp3286
Vnj
p3287
aI1647
aa(lp3288
V22hyunabday
p3289
aI1648
aa(lp3290
Vasco13
p3291
aI1649
aa(lp3292
Vokay
p3293
aI1650
aa(lp3294
Vanimal
p3295
aI1651
aa(lp3296
Vpreclassic
p3297
aI1652
aa(lp3298
Vtragic
p3299
aI1653
aa(lp3300
Vwalk
p3301
aI1654
aa(lp3302
Vinfographic
p3303
aI1655
aa(lp3304
Vcringe
p3305
aI1656
aa(lp3306
Vnaked
p3307
aI1657
aa(lp3308
Vgrowingup
p3309
aI1658
aa(lp3310
Vwoohoo
p3311
aI1659
aa(lp3312
Vnomakeup
p3313
aI1660
aa(lp3314
Vsketch
p3315
aI1661
aa(lp3316
Vwcs
p3317
aI1662
aa(lp3318
Vboomersooner
p3319
aI1663
aa(lp3320
Vfirstpost
p3321
aI1664
aa(lp3322
Vlnyhbt
p3323
aI1665
aa(lp3324
Vpgt4
p3325
aI1666
aa(lp3326
Vfav
p3327
aI1667
aa(lp3328
Vblurredlines
p3329
aI1668
aa(lp3330
Vrare
p3331
aI1669
aa(lp3332
Venvironment
p3333
aI1670
aa(lp3334
Vamericasgottalent
p3335
aI1671
aa(lp3336
Vdirectionerslovelouis
p3337
aI1672
aa(lp3338
Vhallelujah
p3339
aI1673
aa(lp3340
Vmaybe
p3341
aI1674
aa(lp3342
Vreggae
p3343
aI1675
aa(lp3344
Vjuststop
p3345
aI1676
aa(lp3346
Vcelebshoots
p3347
aI1677
aa(lp3348
Vcamping
p3349
aI1678
aa(lp3350
Vadventure
p3351
aI1679
aa(lp3352
Vpraying
p3353
aI1680
aa(lp3354
Vireland
p3355
aI1681
aa(lp3356
Vtu
p3357
aI1682
aa(lp3358
Vheartbroken
p3359
aI1683
aa(lp3360
Vspoiled
p3361
aI1684
aa(lp3362
Vufc
p3363
aI1685
aa(lp3364
Vtru
p3365
aI1686
aa(lp3366
Vlight
p3367
aI1687
aa(lp3368
Vstl
p3369
aI1688
aa(lp3370
Vrays
p3371
aI1689
aa(lp3372
Vtoomuch
p3373
aI1690
aa(lp3374
Vregram
p3375
aI1691
aa(lp3376
Vpc
p3377
aI1692
aa(lp3378
Vsanfrancisco
p3379
aI1693
aa(lp3380
Vnoregrets
p3381
aI1694
aa(lp3382
Vburnt
p3383
aI1695
aa(lp3384
Vimpatient
p3385
aI1696
aa(lp3386
Vblues
p3387
aI1697
aa(lp3388
Vchildhood
p3389
aI1698
aa(lp3390
Vnom
p3391
aI1699
aa(lp3392
Vprayforoklahoma
p3393
aI1700
aa(lp3394
Vaccela
p3395
aI1701
aa(lp3396
Vbutreally
p3397
aI1702
aa(lp3398
Vkcco
p3399
aI1703
aa(lp3400
Vburn
p3401
aI1704
aa(lp3402
Vtoohot
p3403
aI1705
aa(lp3404
Vgoodmusic
p3405
aI1706
aa(lp3406
Vnude
p3407
aI1707
aa(lp3408
Vnothanks
p3409
aI1708
aa(lp3410
Vtakemeback
p3411
aI1709
aa(lp3412
Vthelife
p3413
aI1710
aa(lp3414
Vhomesweethome
p3415
aI1711
aa(lp3416
Vtna
p3417
aI1712
aa(lp3418
Vautism
p3419
aI1713
aa(lp3420
Vbikini
p3421
aI1714
aa(lp3422
Vaccessories
p3423
aI1715
aa(lp3424
Vmyboyfriendsnotallowedto
p3425
aI1716
aa(lp3426
Vneed
p3427
aI1717
aa(lp3428
Vcreative
p3429
aI1718
aa(lp3430
Vhurry
p3431
aI1719
aa(lp3432
Vlaugh
p3433
aI1720
aa(lp3434
Vapps
p3435
aI1721
aa(lp3436
Vink
p3437
aI1722
aa(lp3438
Vgetoverit
p3439
aI1723
aa(lp3440
Vcraftbeer
p3441
aI1724
aa(lp3442
Vwaconzy
p3443
aI1725
aa(lp3444
Vwshh
p3445
aI1726
aa(lp3446
Vhotbreakfastcrashwithjianhao
p3447
aI1727
aa(lp3448
Vintern
p3449
aI1728
aa(lp3450
Vthingsirishpeoplesay
p3451
aI1729
aa(lp3452
Vhandsome
p3453
aI1730
aa(lp3454
Vwiunion
p3455
aI1731
aa(lp3456
Vdetroitgp
p3457
aI1732
aa(lp3458
Vkarachi
p3459
aI1733
aa(lp3460
Vwed2013
p3461
aI1734
aa(lp3462
Vgodisgood
p3463
aI1735
aa(lp3464
Vone
p3465
aI1736
aa(lp3466
Vtwerk
p3467
aI1737
aa(lp3468
Vtuesday
p3469
aI1738
aa(lp3470
Vnotokay
p3471
aI1739
aa(lp3472
Vfreebrad
p3473
aI1740
aa(lp3474
Vbuywecantstoponitunes
p3475
aI1741
aa(lp3476
Vpicslip
p3477
aI1742
aa(lp3478
Vlong
p3479
aI1743
aa(lp3480
Vbargain
p3481
aI1744
aa(lp3482
Vpositive
p3483
aI1745
aa(lp3484
Vimsinglebecause
p3485
aI1746
aa(lp3486
Vgirlfriendtweet
p3487
aI1747
aa(lp3488
Vback
p3489
aI1748
aa(lp3490
Vsamsung
p3491
aI1749
aa(lp3492
Vscandal
p3493
aI1750
aa(lp3494
Vpartytime
p3495
aI1751
aa(lp3496
Vthespecialone
p3497
aI1752
aa(lp3498
Vinspired
p3499
aI1753
aa(lp3500
Vspace
p3501
aI1754
aa(lp3502
Vever
p3503
aI1755
aa(lp3504
Vheadache
p3505
aI1756
aa(lp3506
Vheadline
p3507
aI1757
aa(lp3508
Vwecantdateif
p3509
aI1758
aa(lp3510
Vfaded
p3511
aI1759
aa(lp3512
Vconfabmn
p3513
aI1760
aa(lp3514
Vrage
p3515
aI1761
aa(lp3516
Vladyvols
p3517
aI1762
aa(lp3518
Vsummernights
p3519
aI1763
aa(lp3520
Vdating
p3521
aI1764
aa(lp3522
Vcoupons
p3523
aI1765
aa(lp3524
Vstamps
p3525
aI1766
aa(lp3526
Vawesometeam
p3527
aI1767
aa(lp3528
Vsoiknowitsreal
p3529
aI1768
aa(lp3530
Vidk
p3531
aI1769
aa(lp3532
Vtennessee
p3533
aI1770
aa(lp3534
Vhotels
p3535
aI1771
aa(lp3536
Vinteresting
p3537
aI1772
aa(lp3538
Vperiod
p3539
aI1773
aa(lp3540
Vllc
p3541
aI1774
aa(lp3542
Vnope
p3543
aI1775
aa(lp3544
Vpuppylove
p3545
aI1776
aa(lp3546
Vforsale
p3547
aI1777
aa(lp3548
Vevents
p3549
aI1778
aa(lp3550
Vgreatday
p3551
aI1779
aa(lp3552
Vfamilyguy
p3553
aI1780
aa(lp3554
Vbrothers
p3555
aI1781
aa(lp3556
Vfbloggers
p3557
aI1782
aa(lp3558
Vpissedoff
p3559
aI1783
aa(lp3560
Vdemocratracehorses
p3561
aI1784
aa(lp3562
Vtrancefamily
p3563
aI1785
aa(lp3564
Vmontreal
p3565
aI1786
aa(lp3566
Vnursing
p3567
aI1787
aa(lp3568
Vlss
p3569
aI1788
aa(lp3570
Voccupy
p3571
aI1789
aa(lp3572
Vcoleworld
p3573
aI1790
aa(lp3574
Vbestie
p3575
aI1791
aa(lp3576
Vconsofdatingme
p3577
aI1792
aa(lp3578
Vrs
p3579
aI1793
aa(lp3580
Vcontent
p3581
aI1794
aa(lp3582
Vobamacare
p3583
aI1795
aa(lp3584
Vvalkyrie
p3585
aI1796
aa(lp3586
Vyoureapussy
p3587
aI1797
aa(lp3588
Vsexo
p3589
aI1798
aa(lp3590
Vottawa
p3591
aI1799
aa(lp3592
Vchime
p3593
aI1800
aa(lp3594
Vidol
p3595
aI1801
aa(lp3596
Vsmm
p3597
aI1802
aa(lp3598
Vford
p3599
aI1803
aa(lp3600
Vking
p3601
aI1804
aa(lp3602
Vhigh
p3603
aI1805
aa(lp3604
Vquality
p3605
aI1806
aa(lp3606
Vhowigotdumped
p3607
aI1807
aa(lp3608
Vcheese
p3609
aI1808
aa(lp3610
Vcolorado
p3611
aI1809
aa(lp3612
Vtipsforfreshies
p3613
aI1810
aa(lp3614
Vbieber
p3615
aI1811
aa(lp3616
Vjodiarias
p3617
aI1812
aa(lp3618
Vlad
p3619
aI1813
aa(lp3620
Vparents
p3621
aI1814
aa(lp3622
Vhangover3
p3623
aI1815
aa(lp3624
Vremix
p3625
aI1816
aa(lp3626
Vkathrynbernardotheasianprincess
p3627
aI1817
aa(lp3628
Vbffs
p3629
aI1818
aa(lp3630
Vkingjames
p3631
aI1819
aa(lp3632
Vsmartoperaunlisurf15
p3633
aI1820
aa(lp3634
Vartistsaga
p3635
aI1821
aa(lp3636
Vfuckthat
p3637
aI1822
aa(lp3638
Vshitnoonesays
p3639
aI1823
aa(lp3640
Vdafuq
p3641
aI1824
aa(lp3642
Vdrugs
p3643
aI1825
aa(lp3644
Voverloadontwitcam
p3645
aI1826
aa(lp3646
Vwah
p3647
aI1827
aa(lp3648
Vwastingallthesetears
p3649
aI1828
aa(lp3650
Vlivingthedream
p3651
aI1829
aa(lp3652
Vsf
p3653
aI1830
aa(lp3654
Vasia
p3655
aI1831
aa(lp3656
Vmentionattractivefeatures
p3657
aI1832
aa(lp3658
Vhard
p3659
aI1833
aa(lp3660
Vbday
p3661
aI1834
aa(lp3662
Vthriller
p3663
aI1835
aa(lp3664
Vgetovertv
p3665
aI1836
aa(lp3666
Vbea13
p3667
aI1837
aa(lp3668
Vhosting
p3669
aI1838
aa(lp3670
Vpoker
p3671
aI1839
aa(lp3672
Vyumm
p3673
aI1840
aa(lp3674
Vstruggle
p3675
aI1841
aa(lp3676
Vtickets
p3677
aI1842
aa(lp3678
Vsushi
p3679
aI1843
aa(lp3680
Vparadise
p3681
aI1844
aa(lp3682
Vfatgirlproblems
p3683
aI1845
aa(lp3684
Vlukesarmy
p3685
aI1846
aa(lp3686
Vkendallschmidttedoy
p3687
aI1847
aa(lp3688
Vblogging
p3689
aI1848
aa(lp3690
Vtitanic
p3691
aI1849
aa(lp3692
Vpromo
p3693
aI1850
aa(lp3694
Vaskemblem3onhits1
p3695
aI1851
aa(lp3696
Vsadtimes
p3697
aI1852
aa(lp3698
Vretro
p3699
aI1853
aa(lp3700
Vmyboyfriendnotallowed
p3701
aI1854
aa(lp3702
Vhmu
p3703
aI1855
aa(lp3704
Vballin
p3705
aI1856
aa(lp3706
Vsadlife
p3707
aI1857
aa(lp3708
Vamateur
p3709
aI1858
aa(lp3710
Vhighschool
p3711
aI1859
aa(lp3712
Vtweetlikepeoplefromschool
p3713
aI1860
aa(lp3714
Vmariners
p3715
aI1861
aa(lp3716
Vyesterday
p3717
aI1862
aa(lp3718
Vfavoritemileysong
p3719
aI1863
aa(lp3720
Vmmm
p3721
aI1864
aa(lp3722
Vnc
p3723
aI1865
aa(lp3724
Vguilty
p3725
aI1866
aa(lp3726
Vfederer
p3727
aI1867
aa(lp3728
Valcohol
p3729
aI1868
aa(lp3730
Vpmln
p3731
aI1869
aa(lp3732
Vnotsorry
p3733
aI1870
aa(lp3734
Vrealmadrid
p3735
aI1871
aa(lp3736
Vcouple
p3737
aI1872
aa(lp3738
Vgreece
p3739
aI1873
aa(lp3740
Vmcdonalds
p3741
aI1874
aa(lp3742
Vmattsmith
p3743
aI1875
aa(lp3744
Vmanagement
p3745
aI1876
aa(lp3746
Vbuy
p3747
aI1877
aa(lp3748
Vfuckthis
p3749
aI1878
aa(lp3750
Vpassion
p3751
aI1879
aa(lp3752
Vfollow2befollowed
p3753
aI1880
aa(lp3754
Vclueless
p3755
aI1881
aa(lp3756
Vstudio
p3757
aI1882
aa(lp3758
Vnola
p3759
aI1883
aa(lp3760
Vcmafest
p3761
aI1884
aa(lp3762
Vhappysunday
p3763
aI1885
aa(lp3764
Vonlyinthephilippines
p3765
aI1886
aa(lp3766
Vfollowher
p3767
aI1887
aa(lp3768
Voutdoors
p3769
aI1888
aa(lp3770
Vhappyelfday
p3771
aI1889
aa(lp3772
Vcheesy
p3773
aI1890
aa(lp3774
Vgmo
p3775
aI1891
aa(lp3776
Vgobruins
p3777
aI1892
aa(lp3778
Vletstweetlikeliberals
p3779
aI1893
aa(lp3780
Vd
aI1894
aa(lp3781
Vberlin
p3782
aI1895
aa(lp3783
Vughh
p3784
aI1896
aa(lp3785
Vdomain
p3786
aI1897
aa(lp3787
Vsunrise
p3788
aI1898
aa(lp3789
Vgamer
p3790
aI1899
aa(lp3791
Vyouknowyouareacricketfanwhen
p3792
aI1900
aa(lp3793
Vunc
p3794
aI1901
aa(lp3795
Vspursnation
p3796
aI1902
aa(lp3797
Vitsintheair
p3798
aI1903
aa(lp3799
Vclothes
p3800
aI1904
aa(lp3801
Vbanter
p3802
aI1905
aa(lp3803
Vpow
p3804
aI1906
aa(lp3805
Vsobored
p3806
aI1907
aa(lp3807
Vcali
p3808
aI1908
aa(lp3809
Vunionjbt40
p3810
aI1909
aa(lp3811
Vmuse
p3812
aI1910
aa(lp3813
Vconstruction
p3814
aI1911
aa(lp3815
Vgoodvibes
p3816
aI1912
aa(lp3817
Vmademyday
p3818
aI1913
aa(lp3819
Vglutenfree
p3820
aI1914
aa(lp3821
Vtweet
p3822
aI1915
aa(lp3823
Vwecantstoptomorrow
p3824
aI1916
aa(lp3825
Vcharity
p3826
aI1917
aa(lp3827
Vbroke
p3828
aI1918
aa(lp3829
Vtrakt
p3830
aI1919
aa(lp3831
Vftw
p3832
aI1920
aa(lp3833
Vteddytemz
p3834
aI1921
aa(lp3835
Vwinter
p3836
aI1922
aa(lp3837
Vmystery
p3838
aI1923
aa(lp3839
Vnailart
p3840
aI1924
aa(lp3841
Vshocked
p3842
aI1925
aa(lp3843
Vwant
p3844
aI1926
aa(lp3845
Vcampday
p3846
aI1927
aa(lp3847
Vasmsg
p3848
aI1928
aa(lp3849
Vmmg
p3850
aI1929
aa(lp3851
Vheels
p3852
aI1930
aa(lp3853
Vjust
p3854
aI1931
aa(lp3855
Vuhoh
p3856
aI1932
aa(lp3857
Vwednesday
p3858
aI1933
aa(lp3859
Vphiladelphia
p3860
aI1934
aa(lp3861
Vpharmacy
p3862
aI1935
aa(lp3863
Vou
p3864
aI1936
aa(lp3865
Vnavy
p3866
aI1937
aa(lp3867
Vdisneyland
p3868
aI1938
aa(lp3869
Vplay
p3870
aI1939
aa(lp3871
Vmylove
p3872
aI1940
aa(lp3873
Vebooks
p3874
aI1941
aa(lp3875
Vstopit
p3876
aI1942
aa(lp3877
Vjoy
p3878
aI1943
aa(lp3879
Vlovelife
p3880
aI1944
aa(lp3881
Vchampions
p3882
aI1945
aa(lp3883
Vshow
p3884
aI1946
aa(lp3885
Vthat
p3886
aI1947
aa(lp3887
Vgoodlife
p3888
aI1948
aa(lp3889
Vmine
p3890
aI1949
aa(lp3891
Vdaddysgirl
p3892
aI1950
aa(lp3893
Vepicfail
p3894
aI1951
aa(lp3895
Vo
aI1952
aa(lp3896
Vteamlesbian
p3897
aI1953
aa(lp3898
Vat
p3899
aI1954
aa(lp3900
Vinsurance
p3901
aI1955
aa(lp3902
Vfrench
p3903
aI1956
aa(lp3904
Vfast
p3905
aI1957
aa(lp3906
Vdepressing
p3907
aI1958
aa(lp3908
Vculture
p3909
aI1959
aa(lp3910
Vtwat
p3911
aI1960
aa(lp3912
Vunbelievable
p3913
aI1961
aa(lp3914
Vbirds
p3915
aI1962
aa(lp3916
Vtjmarquezforsundayallstar
p3917
aI1963
aa(lp3918
Vpotd
p3919
aI1964
aa(lp3920
Vbigbritishboybandfollowingspree
p3921
aI1965
aa(lp3922
Vread
p3923
aI1966
aa(lp3924
Vdiabetes
p3925
aI1967
aa(lp3926
Vhomemade
p3927
aI1968
aa(lp3928
Vmls
p3929
aI1969
aa(lp3930
Vbritish
p3931
aI1970
aa(lp3932
Vlongislandmedium
p3933
aI1971
aa(lp3934
Vclean
p3935
aI1972
aa(lp3936
Vtrance
p3937
aI1973
aa(lp3938
Vmissher
p3939
aI1974
aa(lp3940
Vonrepeat
p3941
aI1975
aa(lp3942
Vtheonlywayismarbs
p3943
aI1976
aa(lp3944
Vsinging
p3945
aI1977
aa(lp3946
Vbumptaylorvip
p3947
aI1978
aa(lp3948
V\u062a\u0627\u0628\u0639_\u0645\u0646_\u0639\u0645\u0644_\u0631\u064a\u062a\u0648\u064a\u062a
p3949
aI1979
aa(lp3950
Vday1
p3951
aI1980
aa(lp3952
Vteddybear
p3953
aI1981
aa(lp3954
Vfirst
p3955
aI1982
aa(lp3956
Vyeezus
p3957
aI1983
aa(lp3958
Vherewego
p3959
aI1984
aa(lp3960
Vcancers
p3961
aI1985
aa(lp3962
Vcraving
p3963
aI1986
aa(lp3964
Vloyalty
p3965
aI1987
aa(lp3966
Vbreakingamish
p3967
aI1988
aa(lp3968
Vmelbourne
p3969
aI1989
aa(lp3970
Vwordsthatchowblacks
p3971
aI1990
aa(lp3972
Vshopetsy
p3973
aI1991
aa(lp3974
Vgetit
p3975
aI1992
aa(lp3976
Vcurious
p3977
aI1993
aa(lp3978
Vreunited
p3979
aI1994
aa(lp3980
Vbrunette
p3981
aI1995
aa(lp3982
Vwelcome
p3983
aI1996
aa(lp3984
Vvjse2
p3985
aI1997
aa(lp3986
Vstarsdance
p3987
aI1998
aa(lp3988
Vbreakingbad
p3989
aI1999
aa(lp3990
Vbody
p3991
aI2000
aa(lp3992
Voccupytaksim
p3993
aI2001
aa(lp3994
Vfreak
p3995
aI2002
aa(lp3996
Vspecialone
p3997
aI2003
aa(lp3998
Vlatenight
p3999
aI2004
aa(lp4000
Vproperty
p4001
aI2005
aa(lp4002
Vrecipes
p4003
aI2006
aa(lp4004
Vtooearly
p4005
aI2007
aa(lp4006
Vm
aI2008
aa(lp4007
V5sosfamily
p4008
aI2009
aa(lp4009
Vlazyday
p4010
aI2010
aa(lp4011
Vdick
p4012
aI2011
aa(lp4013
Vow
p4014
aI2012
aa(lp4015
Vgettingold
p4016
aI2013
aa(lp4017
Vsinger
p4018
aI2014
aa(lp4019
Vwth
p4020
aI2015
aa(lp4021
Vsharepict
p4022
aI2016
aa(lp4023
Vted
p4024
aI2017
aa(lp4025
Vlovemyjob
p4026
aI2018
aa(lp4027
Vlisteningto
p4028
aI2019
aa(lp4029
Vaddict
p4030
aI2020
aa(lp4031
Vun
p4032
aI2021
aa(lp4033
Vgucci
p4034
aI2022
aa(lp4035
Vya
p4036
aI2023
aa(lp4037
Vfestival
p4038
aI2024
aa(lp4039
Vlowkey
p4040
aI2025
aa(lp4041
Vworking
p4042
aI2026
aa(lp4043
Vnrl
p4044
aI2027
aa(lp4045
Vnwo
p4046
aI2028
aa(lp4047
Vhorny
p4048
aI2029
aa(lp4049
Vexam
p4050
aI2030
aa(lp4051
Vman
p4052
aI2031
aa(lp4053
Vpou
p4054
aI2032
aa(lp4055
Vshorts
p4056
aI2033
aa(lp4057
Vgeorgia
p4058
aI2034
aa(lp4059
Vpills
p4060
aI2035
aa(lp4061
Vgdworldtourinnagoyaday1
p4062
aI2036
aa(lp4063
Vgopblockbustersummerfilms
p4064
aI2037
aa(lp4065
Vband
p4066
aI2038
aa(lp4067
Vinspirational
p4068
aI2039
aatRp4069
.ccollections
OrderedDict
p1
((lp2
(lp3
V1000aday
p4
aI1474
aa(lp5
V1d
p6
aI592
aa(lp7
V22hyunabday
p8
aI491
aa(lp9
V24seven
p10
aI762
aa(lp11
V28thyuchunday
p12
aI1102
aa(lp13
V40millionbeliebers
p14
aI5226
aa(lp15
V40millionstrong
p16
aI1178
aa(lp17
V500aday
p18
aI3608
aa(lp19
V5sosfamily
p20
aI408
aa(lp21
V69factsaboutme
p22
aI1101
aa(lp23
V6daystil24seven
p24
aI775
aa(lp25
V90sbabyfollowtrain
p26
aI1564
aa(lp27
V\u0623\u0643\u062a\u0628_\u062a\u0627\u0631\u064a\u062e_\u0644\u0646_\u062a\u0646\u0633\u0627\u0647_\u0641\u064a_\u062d\u064a\u0627\u062a\u0643
p28
aI1383
aa(lp29
V\u062a\u0627\u0628\u0639_\u0645\u0646_\u0639\u0645\u0644_\u0631\u064a\u062a\u0648\u064a\u062a
p30
aI415
aa(lp31
V\ub291\ub300\uc640\ubbf8\ub140
p32
aI1120
aa(lp33
V\uc2a4\ubaa8\ud0a4\uac78
p34
aI797
aa(lp35
V\ud3ec\ubbf8\ub2db
p36
aI499
aa(lp37
V\ud558\ub2c8\ubfd0
p38
aI769
aa(lp39
Va
aI1344
aa(lp40
Vabouttime
p41
aI526
aa(lp42
Vaccela
p43
aI476
aa(lp44
Vaccessories
p45
aI473
aa(lp46
Vad
p47
aI1060
aa(lp48
Vadaywithoutinternet
p49
aI734
aa(lp50
Vaddict
p51
aI403
aa(lp52
Vaddicted
p53
aI1532
aa(lp54
Vaddiction
p55
aI560
aa(lp56
Vadorable
p57
aI1083
aa(lp58
Vadult
p59
aI975
aa(lp60
Vadventure
p61
aI482
aa(lp62
Vadvertising
p63
aI525
aa(lp64
Vafc
p65
aI1267
aa(lp66
Vafrica
p67
aI922
aa(lp68
Vafterearth
p69
aI1375
aa(lp70
Vagain
p71
aI555
aa(lp72
Vagt
p73
aI1459
aa(lp74
Vaintnobodygottimeforthat
p75
aI619
aa(lp76
Valcohol
p77
aI441
aa(lp78
Vall
p79
aI542
aa(lp80
Valone
p81
aI518
aa(lp82
Valways
p83
aI905
aa(lp84
Vamateur
p85
aI442
aa(lp86
Vamazing
p87
aI4527
aa(lp88
Vamazon
p89
aI1885
aa(lp90
Vamen
p91
aI1471
aa(lp92
Vamerica
p93
aI1085
aa(lp94
Vamericasgottalent
p95
aI483
aa(lp96
Vamwriting
p97
aI772
aa(lp98
Vanal
p99
aI553
aa(lp100
Vand
p101
aI865
aa(lp102
Vangels
p103
aI638
aa(lp104
Vanghami
p105
aI836
aa(lp106
Vanimal
p107
aI490
aa(lp108
Vanimals
p109
aI733
aa(lp110
Vanime
p111
aI590
aa(lp112
Vannoyed
p113
aI1909
aa(lp114
Vannoying
p115
aI2515
aa(lp116
Vanonymous
p117
aI664
aa(lp118
Vapp
p119
aI1353
aa(lp120
Vapple
p121
aI2183
aa(lp122
Vapprentice
p123
aI870
aa(lp124
Vapps
p125
aI472
aa(lp126
Vaquarius
p127
aI1450
aa(lp128
Varchitecture
p129
aI644
aa(lp130
Varies
p131
aI2375
aa(lp132
Varresteddevelopment
p133
aI783
aa(lp134
Varsenal
p135
aI997
aa(lp136
Vart
p137
aI5018
aa(lp138
Vartist
p139
aI918
aa(lp140
Vartistsaga
p141
aI450
aa(lp142
Vasap
p143
aI662
aa(lp144
Vasco13
p145
aI491
aa(lp146
Vasia
p147
aI448
aa(lp148
Vasian
p149
aI921
aa(lp150
Vaskally
p151
aI1496
aa(lp152
Vaskbarbara
p153
aI1009
aa(lp154
Vaskdraya
p155
aI2343
aa(lp156
Vaskemblem3onhits1
p157
aI444
aa(lp158
Vaskimaginedragons
p159
aI1581
aa(lp160
Vaskjosh
p161
aI762
aa(lp162
Vaskmadisonpettis
p163
aI735
aa(lp164
Vaskmario
p165
aI812
aa(lp166
Vaskmiley
p167
aI8093
aa(lp168
Vaskriley
p169
aI1041
aa(lp170
Vasktoby
p171
aI688
aa(lp172
Vasktwitter
p173
aI661
aa(lp174
Vasmsg
p175
aI427
aa(lp176
Vass
p177
aI1242
aa(lp178
Vasshole
p179
aI620
aa(lp180
Vassoverboobsbecause
p181
aI938
aa(lp182
Vat
p183
aI423
aa(lp184
Vatheism
p185
aI607
aa(lp186
Vathletics
p187
aI658
aa(lp188
Vatl
p189
aI944
aa(lp190
Vatlanta
p191
aI865
aa(lp192
Vattraction
p193
aI899
aa(lp194
Vauspol
p195
aI2281
aa(lp196
Vaustin
p197
aI539
aa(lp198
Vaustralia
p199
aI997
aa(lp200
Vautism
p201
aI473
aa(lp202
Vauto
p203
aI796
aa(lp204
Vautofollow
p205
aI2500
aa(lp206
Vautofollowback
p207
aI1707
aa(lp208
Vawesome
p209
aI4364
aa(lp210
Vawesometeam
p211
aI463
aa(lp212
Vawk
p213
aI868
aa(lp214
Vawks
p215
aI627
aa(lp216
Vawkward
p217
aI3781
aa(lp218
Vb
aI544
aa(lp219
Vbabe
p220
aI554
aa(lp221
Vbaby
p222
aI2631
aa(lp223
Vbachelorette
p224
aI2760
aa(lp225
Vback
p226
aI465
aa(lp227
Vbacon
p228
aI542
aa(lp229
Vbad
p230
aI792
aa(lp231
Vbadass
p232
aI909
aa(lp233
Vbahrain
p234
aI516
aa(lp235
Vballin
p236
aI443
aa(lp237
Vballislife
p238
aI583
aa(lp239
Vband
p240
aI393
aa(lp241
Vbangbang
p242
aI542
aa(lp243
Vbanter
p244
aI430
aa(lp245
Vbarackobamasnextbook
p246
aI1620
aa(lp247
Vbarcelona
p248
aI587
aa(lp249
Vbargain
p250
aI466
aa(lp251
Vbaseball
p252
aI1614
aa(lp253
Vbasketball
p254
aI1013
aa(lp255
Vbatman
p256
aI553
aa(lp257
Vbbathechase
p258
aI8950
aa(lp259
Vbbc
p260
aI1085
aa(lp261
Vbbl
p262
aI512
aa(lp263
Vbbloggers
p264
aI1258
aa(lp265
Vbbq
p266
aI1326
aa(lp267
Vbday
p268
aI448
aa(lp269
Vbea13
p270
aI447
aa(lp271
Vbeach
p272
aI3283
aa(lp273
Vbeast
p274
aI764
aa(lp275
Vbeastmode
p276
aI644
aa(lp277
Vbeats
p278
aI789
aa(lp279
Vbeattheheat
p280
aI1844
aa(lp281
Vbeautiful
p282
aI6047
aa(lp283
Vbeauty
p284
aI2799
aa(lp285
Vbecauseitsthecup
p286
aI1770
aa(lp287
Vbed
p288
aI618
aa(lp289
Vbedtime
p290
aI657
aa(lp291
Vbeer
p292
aI1703
aa(lp293
Vbelieber
p294
aI828
aa(lp295
Vbeliebers
p296
aI1344
aa(lp297
Vbeliebersareexcitedforheartbreaker
p298
aI1645
aa(lp299
Vbeliebersarewithyou
p300
aI639
aa(lp301
Vbeliebersdayaroundtheworld
p302
aI779
aa(lp303
Vbelieve
p304
aI2028
aa(lp305
Vbelievetour
p306
aI775
aa(lp307
Vbenghazi
p308
aI950
aa(lp309
Vberlin
p310
aI432
aa(lp311
Vbest
p312
aI2919
aa(lp313
Vbestfriend
p314
aI2688
aa(lp315
Vbestfriends
p316
aI2270
aa(lp317
Vbestie
p318
aI457
aa(lp319
Vbesties
p320
aI743
aa(lp321
Vbeyonce
p322
aI776
aa(lp323
Vbff
p324
aI1414
aa(lp325
Vbffs
p326
aI451
aa(lp327
Vbgt
p328
aI7264
aa(lp329
Vbible
p330
aI728
aa(lp331
Vbieber
p332
aI453
aa(lp333
Vbig
p334
aI639
aa(lp335
Vbigbritishboybandfollowingspree
p336
aI419
aa(lp337
Vbigbroafrica
p338
aI1274
aa(lp339
Vbigdata
p340
aI562
aa(lp341
Vbike
p342
aI849
aa(lp343
Vbikini
p344
aI473
aa(lp345
Vbirds
p346
aI420
aa(lp347
Vbirthday
p348
aI2976
aa(lp349
Vbitch
p350
aI1931
aa(lp351
Vbitches
p352
aI680
aa(lp353
Vbitcoin
p354
aI829
aa(lp355
Vbittersweet
p356
aI1404
aa(lp357
Vbizitalk
p358
aI1080
aa(lp359
Vblack
p360
aI1783
aa(lp361
Vblackandwhite
p362
aI551
aa(lp363
Vblackberry
p364
aI585
aa(lp365
Vblackhawks
p366
aI2943
aa(lp367
Vblah
p368
aI534
aa(lp369
Vbless
p370
aI521
aa(lp371
Vblessed
p372
aI5633
aa(lp373
Vbliss
p374
aI889
aa(lp375
Vblog
p376
aI1587
aa(lp377
Vblogging
p378
aI444
aa(lp379
Vblogtalkradio
p380
aI522
aa(lp381
Vblonde
p382
aI921
aa(lp383
Vblue
p384
aI1612
aa(lp385
Vbluejays
p386
aI897
aa(lp387
Vblues
p388
aI477
aa(lp389
Vblurredlines
p390
aI484
aa(lp391
Vbody
p392
aI410
aa(lp393
Vboo
p394
aI733
aa(lp395
Vboobs
p396
aI998
aa(lp397
Vbook
p398
aI1124
aa(lp399
Vbooks
p400
aI1949
aa(lp401
Vboom
p402
aI1573
aa(lp403
Vboomersooner
p404
aI486
aa(lp405
Vbooty
p406
aI786
aa(lp407
Vbootyhadmelike
p408
aI1227
aa(lp409
Vbored
p410
aI5759
aa(lp411
Vboring
p412
aI1257
aa(lp413
Vbornsinner
p414
aI678
aa(lp415
Vboss
p416
aI1182
aa(lp417
Vboston
p418
aI1550
aa(lp419
Vbostonstrong
p420
aI570
aa(lp421
Vbot
p422
aI2100
aa(lp423
Vboxing
p424
aI710
aa(lp425
Vboy
p426
aI1212
aa(lp427
Vboyfriend
p428
aI1492
aa(lp429
Vboys
p430
aI619
aa(lp431
Vbraveng
p432
aI791
aa(lp433
Vbraves
p434
aI1304
aa(lp435
Vbrazil
p436
aI1560
aa(lp437
Vbreakfast
p438
aI1244
aa(lp439
Vbreaking
p440
aI914
aa(lp441
Vbreakingamish
p442
aI413
aa(lp443
Vbreakingbad
p444
aI411
aa(lp445
Vbreakingnews
p446
aI576
aa(lp447
Vbrewers
p448
aI554
aa(lp449
Vbrilliant
p450
aI546
aa(lp451
Vbringiton
p452
aI687
aa(lp453
Vbritish
p454
aI417
aa(lp455
Vbroke
p456
aI429
aa(lp457
Vbrooklyn
p458
aI687
aa(lp459
Vbrother
p460
aI877
aa(lp461
Vbrothers
p462
aI459
aa(lp463
Vbruins
p464
aI4516
aa(lp465
Vbrunette
p466
aI412
aa(lp467
Vbubblews
p468
aI1232
aa(lp469
Vbucketlist
p470
aI611
aa(lp471
Vbullshit
p472
aI974
aa(lp473
Vbumptaylorvip
p474
aI415
aa(lp475
Vburn
p476
aI475
aa(lp477
Vburnt
p478
aI478
aa(lp479
Vbusiness
p480
aI4228
aa(lp481
Vbutreally
p482
aI475
aa(lp483
Vbuy
p484
aI436
aa(lp485
Vbuyhercrazy
p486
aI557
aa(lp487
Vbuywecantstoponitunes
p488
aI467
aa(lp489
Vbuzzing
p490
aI813
aa(lp491
Vbye
p492
aI2208
aa(lp493
Vc
aI493
aa(lp494
Vca
p495
aI607
aa(lp496
Vcake
p497
aI1068
aa(lp498
Vcali
p499
aI430
aa(lp500
Vcalifornia
p501
aI1085
aa(lp502
Vcamera
p503
aI550
aa(lp504
Vcampday
p505
aI427
aa(lp506
Vcamping
p507
aI482
aa(lp508
Vcan
p509
aI680
aa(lp510
Vcanada
p511
aI1095
aa(lp512
Vcancer
p513
aI3069
aa(lp514
Vcancers
p515
aI414
aa(lp516
Vcandycrush
p517
aI748
aa(lp518
Vcantsleep
p519
aI971
aa(lp520
Vcantwait
p521
aI4345
aa(lp522
Vcapricorn
p523
aI1490
aa(lp524
Vcar
p525
aI1398
aa(lp526
Vcards
p527
aI526
aa(lp528
Vcareer
p529
aI808
aa(lp530
Vcareers
p531
aI560
aa(lp532
Vcars
p533
aI1014
aa(lp534
Vcastle
p535
aI550
aa(lp536
Vcat
p537
aI1736
aa(lp538
Vcats
p539
aI901
aa(lp540
Vccot
p541
aI645
aa(lp542
Vcdnpoli
p543
aI1463
aa(lp544
Vcelebrity
p545
aI1567
aa(lp546
Vcelebritynews
p547
aI1057
aa(lp548
Vcelebshoots
p549
aI482
aa(lp550
Vcfc
p551
aI3462
aa(lp552
Vchampions
p553
aI424
aa(lp554
Vchange
p555
aI604
aa(lp556
Vchangebeginswithme
p557
aI580
aa(lp558
Vcharity
p559
aI429
aa(lp560
Vcheap
p561
aI1825
aa(lp562
Vcheck
p563
aI537
aa(lp564
Vcheers
p565
aI921
aa(lp566
Vcheese
p567
aI454
aa(lp568
Vcheesy
p569
aI433
aa(lp570
Vchelsea
p571
aI813
aa(lp572
Vchicago
p573
aI2219
aa(lp574
Vchicken
p575
aI650
aa(lp576
Vchicserullyseschat
p577
aI525
aa(lp578
Vchildhood
p579
aI476
aa(lp580
Vchildren
p581
aI559
aa(lp582
Vchill
p583
aI993
aa(lp584
Vchillin
p585
aI814
aa(lp586
Vchilling
p587
aI593
aa(lp588
Vchime
p589
aI455
aa(lp590
Vchimeforchange
p591
aI2359
aa(lp592
Vchina
p593
aI1258
aa(lp594
Vchivslak
p595
aI532
aa(lp596
Vchloe
p597
aI786
aa(lp598
Vchloeto1million
p599
aI2044
aa(lp600
Vchocolate
p601
aI1037
aa(lp602
Vchristian
p603
aI559
aa(lp604
Vchurch
p605
aI874
aa(lp606
Vcinema
p607
aI583
aa(lp608
Vcity
p609
aI559
aa(lp610
Vcl
p611
aI782
aa(lp612
Vclarenceadrianfollowspree
p613
aI7796
aa(lp614
Vclarencefollowspree
p615
aI1418
aa(lp616
Vclass
p617
aI852
aa(lp618
Vclassic
p619
aI3172
aa(lp620
Vclassof2013
p621
aI2247
aa(lp622
Vclassy
p623
aI883
aa(lp624
Vclean
p625
aI417
aa(lp626
Vclingon
p627
aI547
aa(lp628
Vclothes
p629
aI431
aa(lp630
Vclothing
p631
aI599
aa(lp632
Vcloud
p633
aI841
aa(lp634
Vclouds
p635
aI724
aa(lp636
Vclueless
p637
aI435
aa(lp638
Vclutch
p639
aI818
aa(lp640
Vcmafest
p641
aI434
aa(lp642
Vcmtawards
p643
aI902
aa(lp644
Vcnn
p645
aI764
aa(lp646
Vcoffee
p647
aI1754
aa(lp648
Vcold
p649
aI784
aa(lp650
Vcoleworld
p651
aI458
aa(lp652
Vcollectibles
p653
aI642
aa(lp654
Vcollege
p655
aI1140
aa(lp656
Vcolorado
p657
aI453
aa(lp658
Vcomeback
p659
aI538
aa(lp660
Vcomedy
p661
aI864
aa(lp662
Vcomeon
p663
aI576
aa(lp664
Vcomics
p665
aI559
aa(lp666
Vcommunity
p667
aI575
aa(lp668
Vcompetition
p669
aI723
aa(lp670
Vcomrades2013
p671
aI702
aa(lp672
Vconcert
p673
aI1199
aa(lp674
Vconfabmn
p675
aI464
aa(lp676
Vconfession
p677
aI532
aa(lp678
Vconfessionnight
p679
aI568
aa(lp680
Vconfused
p681
aI2536
aa(lp682
Vcongrats
p683
aI905
aa(lp684
Vconsofdatingme
p685
aI457
aa(lp686
Vconstantcontact
p687
aI1710
aa(lp688
Vconstruction
p689
aI430
aa(lp690
Vcontent
p691
aI457
aa(lp692
Vcontest
p693
aI709
aa(lp694
Vcooking
p695
aI578
aa(lp696
Vcool
p697
aI3227
aa(lp698
Vcountdown
p699
aI737
aa(lp700
Vcountry
p701
aI766
aa(lp702
Vcountrymusic
p703
aI541
aa(lp704
Vcouple
p705
aI439
aa(lp706
Vcoupon
p707
aI706
aa(lp708
Vcoupons
p709
aI463
aa(lp710
Vcousin
p711
aI618
aa(lp712
Vcousins
p713
aI627
aa(lp714
Vcraftbeer
p715
aI472
aa(lp716
Vcraving
p717
aI413
aa(lp718
Vcrazy
p719
aI3001
aa(lp720
Vcrazymofo
p721
aI912
aa(lp722
Vcrazymofos
p723
aI8101
aa(lp724
Vcrazymofosfollowparty
p725
aI5420
aa(lp726
Vcreative
p727
aI473
aa(lp728
Vcreep
p729
aI496
aa(lp730
Vcreepy
p731
aI721
aa(lp732
Vcricket
p733
aI1485
aa(lp734
Vcringe
p735
aI488
aa(lp736
Vcrossfit
p737
aI690
aa(lp738
Vcrowdfunding
p739
aI663
aa(lp740
Vcrying
p741
aI1256
aa(lp742
Vcsrracing
p743
aI695
aa(lp744
Vct13
p745
aI1788
aa(lp746
Vcubs
p747
aI524
aa(lp748
Vculture
p749
aI421
aa(lp750
Vcunt
p751
aI530
aa(lp752
Vcurious
p753
aI412
aa(lp754
Vcute
p755
aI7497
aa(lp756
Vcutie
p757
aI1066
aa(lp758
Vcws
p759
aI1042
aa(lp760
Vcycling
p761
aI1012
aa(lp762
Vd
aI432
aa(lp763
Vdad
p764
aI567
aa(lp765
Vdaddysgirl
p766
aI423
aa(lp767
Vdaftpunk
p768
aI588
aa(lp769
Vdafuq
p770
aI450
aa(lp771
Vdailytweet
p772
aI1410
aa(lp773
Vdallas
p774
aI721
aa(lp775
Vdamn
p776
aI2191
aa(lp777
Vdance
p778
aI1559
aa(lp779
Vdancemoms
p780
aI582
aa(lp781
Vdating
p782
aI463
aa(lp783
Vday
p784
aI1305
aa(lp785
Vday1
p786
aI414
aa(lp787
Vdaymade
p788
aI707
aa(lp789
Vdayoff
p790
aI510
aa(lp791
Vdays
p792
aI683
aa(lp793
Vdc
p794
aI1098
aa(lp795
Vdead
p796
aI4102
aa(lp797
Vdeal
p798
aI1705
aa(lp799
Vdeals
p800
aI1311
aa(lp801
Vdealwithit
p802
aI560
aa(lp803
Vdearjesse
p804
aI1923
aa(lp805
Vdeath
p806
aI531
aa(lp807
Vdecisions
p808
aI1474
aa(lp809
Vdedication
p810
aI958
aa(lp811
Vdeep
p812
aI583
aa(lp813
Vdeitywars
p814
aI691
aa(lp815
Vdelicious
p816
aI1382
aa(lp817
Vdemi
p818
aI855
aa(lp819
Vdemocratracehorses
p820
aI459
aa(lp821
Vdenver
p822
aI512
aa(lp823
Vdepressed
p824
aI516
aa(lp825
Vdepressing
p826
aI422
aa(lp827
Vdesign
p828
aI2523
aa(lp829
Vdesperate
p830
aI511
aa(lp831
Vdetermined
p832
aI763
aa(lp833
Vdetroit
p834
aI758
aa(lp835
Vdetroitgp
p836
aI470
aa(lp837
Vdiabetes
p838
aI418
aa(lp839
Vdick
p840
aI406
aa(lp841
Vdiet
p842
aI876
aa(lp843
Vdigital
p844
aI698
aa(lp845
Vdinner
p846
aI1348
aa(lp847
Vdirectioner
p848
aI645
aa(lp849
Vdirectionermix1065
p850
aI3947
aa(lp851
Vdirectioners
p852
aI514
aa(lp853
Vdirectionersandbeliebersfollowparty
p854
aI1891
aa(lp855
Vdirectionerslovelouis
p856
aI483
aa(lp857
Vdirenankara
p858
aI544
aa(lp859
Vdirengaziparki
p860
aI654
aa(lp861
Vdirengezipark
p862
aI640
aa(lp863
Vdirengezipark\u0131
p864
aI563
aa(lp865
Vdirengeziparki
p866
aI2468
aa(lp867
Vdisappointed
p868
aI764
aa(lp869
Vdiscount
p870
aI1193
aa(lp871
Vdisgusting
p872
aI586
aa(lp873
Vdisney
p874
aI1297
aa(lp875
Vdisneyland
p876
aI425
aa(lp877
Vdivypotahasnofriends
p878
aI917
aa(lp879
Vdiy
p880
aI771
aa(lp881
Vdj
p882
aI790
aa(lp883
Vdmv
p884
aI583
aa(lp885
Vdoctorwho
p886
aI3425
aa(lp887
Vdodgers
p888
aI1100
aa(lp889
Vdog
p890
aI2318
aa(lp891
Vdogs
p892
aI978
aa(lp893
Vdomain
p894
aI432
aa(lp895
Vdon
p896
aI533
aa(lp897
Vdone
p898
aI2341
aa(lp899
Vdontbethatguy
p900
aI844
aa(lp901
Vdontcare
p902
aI790
aa(lp903
Vdontjudgeme
p904
aI1346
aa(lp905
Vdope
p906
aI1401
aa(lp907
Vdownload
p908
aI3696
aa(lp909
Vdownloadunionjcarryyouatmidnight
p910
aI857
aa(lp911
Vdownloadunionjcarryyounow
p912
aI1037
aa(lp913
Vdrake
p914
aI583
aa(lp915
Vdrama
p916
aI527
aa(lp917
Vdrawing
p918
aI743
aa(lp919
Vdream
p920
aI882
aa(lp921
Vdreambig
p922
aI905
aa(lp923
Vdreams
p924
aI693
aa(lp925
Vdress
p926
aI781
aa(lp927
Vdrink
p928
aI633
aa(lp929
Vdrinks
p930
aI863
aa(lp931
Vdrugs
p932
aI450
aa(lp933
Vdrunk
p934
aI1378
aa(lp935
Vdrwho
p936
aI731
aa(lp937
Vdubai
p938
aI1142
aa(lp939
Vduh
p940
aI884
aa(lp941
Vdumb
p942
aI647
aa(lp943
Vdumbass
p944
aI765
aa(lp945
Vdying
p946
aI2285
aa(lp947
Vearthquake
p948
aI769
aa(lp949
Veasy
p950
aI570
aa(lp951
Vebay
p952
aI1243
aa(lp953
Vebaymobile
p954
aI685
aa(lp955
Vebook
p956
aI818
aa(lp957
Vebooks
p958
aI424
aa(lp959
Vebyrichardfollowspree
p960
aI1524
aa(lp961
Vecf
p962
aI717
aa(lp963
Veconomy
p964
aI497
aa(lp965
Vedchat
p966
aI931
aa(lp967
Vedl
p968
aI1021
aa(lp969
Vedm
p970
aI1277
aa(lp971
Vedtech
p972
aI729
aa(lp973
Veducation
p974
aI1452
aa(lp975
Vedutech
p976
aI747
aa(lp977
Vefc
p978
aI791
aa(lp979
Vegypt
p980
aI1126
aa(lp981
Velectronic
p982
aI704
aa(lp983
Velectronics
p984
aI883
aa(lp985
Vembarrassing
p986
aI760
aa(lp987
Vemotional
p988
aI523
aa(lp989
Vendomondo
p990
aI1585
aa(lp991
Venergy
p992
aI905
aa(lp993
Vengineering
p994
aI492
aa(lp995
Vengland
p996
aI2183
aa(lp997
Venglandvsbrazil
p998
aI923
aa(lp999
Venglish
p1000
aI674
aa(lp1001
Vengvnz
p1002
aI843
aa(lp1003
Venjoy
p1004
aI941
aa(lp1005
Ventertainment
p1006
aI1234
aa(lp1007
Ventrepreneur
p1008
aI803
aa(lp1009
Venvironment
p1010
aI484
aa(lp1011
Vepic
p1012
aI1851
aa(lp1013
Vepicfail
p1014
aI423
aa(lp1015
Vequalmarriage
p1016
aI1090
aa(lp1017
Verdogan
p1018
aI569
aa(lp1019
Vespn
p1020
aI575
aa(lp1021
Vetsy
p1022
aI2643
aa(lp1023
Veu
p1024
aI534
aa(lp1025
Veurope
p1026
aI647
aa(lp1027
Vevent
p1028
aI634
aa(lp1029
Vevents
p1030
aI460
aa(lp1031
Vever
p1032
aI464
aa(lp1033
Vew
p1034
aI1321
aa(lp1035
Vexam
p1036
aI399
aa(lp1037
Vexams
p1038
aI1126
aa(lp1039
Vexcited
p1040
aI7485
aa(lp1041
Vexciting
p1042
aI517
aa(lp1043
Vexercise
p1044
aI592
aa(lp1045
Vexhausted
p1046
aI1769
aa(lp1047
Vexo
p1048
aI1042
aa(lp1049
Vexo_xoxo
p1050
aI656
aa(lp1051
Vexposepp
p1052
aI1362
aa(lp1053
Veyes
p1054
aI793
aa(lp1055
Vf
aI1139
aa(lp1056
Vf1
p1057
aI943
aa(lp1058
Vf4f
p1059
aI3186
aa(lp1060
Vface
p1061
aI551
aa(lp1062
Vfacebook
p1063
aI2667
aa(lp1064
Vfacepalm
p1065
aI614
aa(lp1066
Vfact
p1067
aI5159
aa(lp1068
Vfacts
p1069
aI1171
aa(lp1070
Vfaded
p1071
aI464
aa(lp1072
Vfail
p1073
aI3263
aa(lp1074
Vfaith
p1075
aI1168
aa(lp1076
Vfake
p1077
aI784
aa(lp1078
Vfake10factsaboutme
p1079
aI1028
aa(lp1080
Vfamily
p1081
aI5719
aa(lp1082
Vfamilyguy
p1083
aI460
aa(lp1084
Vfamilytime
p1085
aI647
aa(lp1086
Vfantasica
p1087
aI1210
aa(lp1088
Vfantasy
p1089
aI531
aa(lp1090
Vfarmville
p1091
aI806
aa(lp1092
Vfashion
p1093
aI6550
aa(lp1094
Vfast
p1095
aI422
aa(lp1096
Vfast6
p1097
aI1174
aa(lp1098
Vfat
p1099
aI646
aa(lp1100
Vfatgirlproblems
p1101
aI444
aa(lp1102
Vfathersday
p1103
aI1191
aa(lp1104
Vfatty
p1105
aI755
aa(lp1106
Vfav
p1107
aI485
aa(lp1108
Vfavorite
p1109
aI947
aa(lp1110
Vfavoritemileysong
p1111
aI442
aa(lp1112
Vfavorites
p1113
aI573
aa(lp1114
Vfb
p1115
aI6978
aa(lp1116
Vfbloggers
p1117
aI459
aa(lp1118
Vfcblive
p1119
aI493
aa(lp1120
Vfederer
p1121
aI441
aa(lp1122
Vfeel
p1123
aI825
aa(lp1124
Vfeelinggood
p1125
aI504
aa(lp1126
Vfemalepains
p1127
aI632
aa(lp1128
Vfestival
p1129
aI402
aa(lp1130
Vff
p1131
aI7013
aa(lp1132
Vffs
p1133
aI518
aa(lp1134
Vfilm
p1135
aI1063
aa(lp1136
Vfinally
p1137
aI3359
aa(lp1138
Vfinals
p1139
aI1373
aa(lp1140
Vfinance
p1141
aI855
aa(lp1142
Vfingerscrossed
p1143
aI1318
aa(lp1144
Vfire
p1145
aI951
aa(lp1146
Vfirst
p1147
aI414
aa(lp1148
Vfirstpost
p1149
aI486
aa(lp1150
Vfirstworldproblems
p1151
aI2229
aa(lp1152
Vfish
p1153
aI502
aa(lp1154
Vfishing
p1155
aI734
aa(lp1156
Vfit
p1157
aI700
aa(lp1158
Vfitfam
p1159
aI575
aa(lp1160
Vfitness
p1161
aI2961
aa(lp1162
Vfitstats
p1163
aI634
aa(lp1164
Vflashback
p1165
aI733
aa(lp1166
Vflorida
p1167
aI1376
aa(lp1168
Vflower
p1169
aI631
aa(lp1170
Vflowers
p1171
aI1155
aa(lp1172
Vfml
p1173
aI6504
aa(lp1174
Vfmsphotoaday
p1175
aI593
aa(lp1176
Vfollow
p1177
aI9380
aa(lp1178
Vfollow2befollowed
p1179
aI435
aa(lp1180
Vfollow4follow
p1181
aI3017
aa(lp1182
Vfollowback
p1183
aI8105
aa(lp1184
Vfollowbackseguro
p1185
aI519
aa(lp1186
Vfollowers
p1187
aI1749
aa(lp1188
Vfollowforfollow
p1189
aI624
aa(lp1190
Vfollowher
p1191
aI433
aa(lp1192
Vfollowme
p1193
aI7541
aa(lp1194
Vfollowmebeau
p1195
aI13563
aa(lp1196
Vfollowmejai
p1197
aI530
aa(lp1198
Vfollowmejc
p1199
aI646
aa(lp1200
Vfollowmemelanie
p1201
aI1001
aa(lp1202
Vfollowngain
p1203
aI3874
aa(lp1204
Vfood
p1205
aI5055
aa(lp1206
Vfoodie
p1207
aI548
aa(lp1208
Vfoodporn
p1209
aI1877
aa(lp1210
Vfootball
p1211
aI2207
aa(lp1212
Vfor
p1213
aI598
aa(lp1214
Vford
p1215
aI455
aa(lp1216
Vforever
p1217
aI1146
aa(lp1218
Vforeveralone
p1219
aI1625
aa(lp1220
Vforex
p1221
aI1471
aa(lp1222
Vforreal
p1223
aI781
aa(lp1224
Vforsale
p1225
aI460
aa(lp1226
Vfoursquare
p1227
aI522
aa(lp1228
Vfpsf
p1229
aI772
aa(lp1230
Vfrance
p1231
aI776
aa(lp1232
Vfreak
p1233
aI410
aa(lp1234
Vfree
p1235
aI5911
aa(lp1236
Vfreebrad
p1237
aI467
aa(lp1238
Vfreedom
p1239
aI1488
aa(lp1240
Vfreelance
p1241
aI970
aa(lp1242
Vfrench
p1243
aI423
aa(lp1244
Vfrenchopen
p1245
aI1525
aa(lp1246
Vfresh
p1247
aI1219
aa(lp1248
Vfriday
p1249
aI811
aa(lp1250
Vfriend
p1251
aI1172
aa(lp1252
Vfriends
p1253
aI5724
aa(lp1254
Vfriendship
p1255
aI702
aa(lp1256
Vfrustrated
p1257
aI687
aa(lp1258
Vftm
p1259
aI628
aa(lp1260
Vftw
p1261
aI428
aa(lp1262
Vfuck
p1263
aI4014
aa(lp1264
Vfucked
p1265
aI524
aa(lp1266
Vfuckit
p1267
aI1310
aa(lp1268
Vfuckoff
p1269
aI1323
aa(lp1270
Vfuckthat
p1271
aI450
aa(lp1272
Vfuckthis
p1273
aI436
aa(lp1274
Vfuckyeah
p1275
aI670
aa(lp1276
Vfuckyou
p1277
aI1644
aa(lp1278
Vfun
p1279
aI5531
aa(lp1280
Vfunfact
p1281
aI506
aa(lp1282
Vfunny
p1283
aI4365
aa(lp1284
Vfuntimes
p1285
aI706
aa(lp1286
Vfuture
p1287
aI692
aa(lp1288
Vfx
p1289
aI650
aa(lp1290
Vgaa
p1291
aI499
aa(lp1292
Vgame
p1293
aI1036
aa(lp1294
Vgame7
p1295
aI3926
aa(lp1296
Vgameofthrones
p1297
aI14520
aa(lp1298
Vgamer
p1299
aI431
aa(lp1300
Vgames
p1301
aI1479
aa(lp1302
Vgaming
p1303
aI792
aa(lp1304
Vgarden
p1305
aI799
aa(lp1306
Vgay
p1307
aI2204
aa(lp1308
Vgdworldtourinnagoyaday1
p1309
aI395
aa(lp1310
Vgeek
p1311
aI602
aa(lp1312
Vgemini
p1313
aI3038
aa(lp1314
Vgenius
p1315
aI763
aa(lp1316
Vgeorgia
p1317
aI396
aa(lp1318
Vgermany
p1319
aI793
aa(lp1320
Vgetalife
p1321
aI533
aa(lp1322
Vgetglue
p1323
aI10563
aa(lp1324
Vgetit
p1325
aI412
aa(lp1326
Vgetoverit
p1327
aI472
aa(lp1328
Vgetovertv
p1329
aI448
aa(lp1330
Vgettingold
p1331
aI406
aa(lp1332
Vgetyoboobsout
p1333
aI678
aa(lp1334
Vgh
p1335
aI853
aa(lp1336
Vgifboom
p1337
aI1069
aa(lp1338
Vgift
p1339
aI766
aa(lp1340
Vgifts
p1341
aI560
aa(lp1342
Vgigmemories
p1343
aI1199
aa(lp1344
Vgirl
p1345
aI3173
aa(lp1346
Vgirlcode
p1347
aI3030
aa(lp1348
Vgirlfriend
p1349
aI611
aa(lp1350
Vgirlfriendtweet
p1351
aI466
aa(lp1352
Vgirlproblems
p1353
aI696
aa(lp1354
Vgirls
p1355
aI2537
aa(lp1356
Vgiveaway
p1357
aI3509
aa(lp1358
Vglasses
p1359
aI535
aa(lp1360
Vglutenfree
p1361
aI429
aa(lp1362
Vgmo
p1363
aI433
aa(lp1364
Vgo
p1365
aI901
aa(lp1366
Vgoaway
p1367
aI1377
aa(lp1368
Vgobruins
p1369
aI433
aa(lp1370
Vgod
p1371
aI2007
aa(lp1372
Vgodbless
p1373
aI605
aa(lp1374
Vgodisgood
p1375
aI469
aa(lp1376
Vgohawks
p1377
aI525
aa(lp1378
Vgoheat
p1379
aI801
aa(lp1380
Vgokingsgo
p1381
aI520
aa(lp1382
Vgold
p1383
aI1118
aa(lp1384
Vgolf
p1385
aI1297
aa(lp1386
Vgood
p1387
aI1845
aa(lp1388
Vgoodbye
p1389
aI617
aa(lp1390
Vgoodbyegop
p1391
aI2973
aa(lp1392
Vgoodday
p1393
aI994
aa(lp1394
Vgoodlife
p1395
aI424
aa(lp1396
Vgoodluck
p1397
aI1099
aa(lp1398
Vgoodmorning
p1399
aI2468
aa(lp1400
Vgoodmusic
p1401
aI475
aa(lp1402
Vgoodnight
p1403
aI4400
aa(lp1404
Vgoodtimes
p1405
aI2760
aa(lp1406
Vgoodvibes
p1407
aI430
aa(lp1408
Vgoogle
p1409
aI2460
aa(lp1410
Vgop
p1411
aI1255
aa(lp1412
Vgopacers
p1413
aI754
aa(lp1414
Vgopblockbustersummerfilms
p1415
aI394
aa(lp1416
Vgorgeous
p1417
aI1058
aa(lp1418
Vgospursgo
p1419
aI592
aa(lp1420
Vgossip
p1421
aI1591
aa(lp1422
Vgot
p1423
aI7067
aa(lp1424
Vgraduation
p1425
aI2747
aa(lp1426
Vgrateful
p1427
aI970
aa(lp1428
Vgreat
p1429
aI1833
aa(lp1430
Vgreatday
p1431
aI460
aa(lp1432
Vgreece
p1433
aI439
aa(lp1434
Vgreen
p1435
aI1700
aa(lp1436
Vgrind
p1437
aI741
aa(lp1438
Vgross
p1439
aI1429
aa(lp1440
Vgrowingup
p1441
aI488
aa(lp1442
Vgrowup
p1443
aI1236
aa(lp1444
Vgtfo
p1445
aI785
aa(lp1446
Vgucci
p1447
aI402
aa(lp1448
Vguilty
p1449
aI441
aa(lp1450
Vguitar
p1451
aI528
aa(lp1452
Vgutted
p1453
aI699
aa(lp1454
Vguycode
p1455
aI498
aa(lp1456
Vgym
p1457
aI1284
aa(lp1458
Vha
p1459
aI783
aa(lp1460
Vhaha
p1461
aI1942
aa(lp1462
Vhahaha
p1463
aI620
aa(lp1464
Vhair
p1465
aI2036
aa(lp1466
Vhalamadrid
p1467
aI760
aa(lp1468
Vhallelujah
p1469
aI483
aa(lp1470
Vhandmade
p1471
aI1020
aa(lp1472
Vhandmadebot
p1473
aI776
aa(lp1474
Vhandsome
p1475
aI471
aa(lp1476
Vhangover
p1477
aI514
aa(lp1478
Vhangover3
p1479
aI452
aa(lp1480
Vhannibal
p1481
aI601
aa(lp1482
Vhappiness
p1483
aI1279
aa(lp1484
Vhappy
p1485
aI8112
aa(lp1486
Vhappy28thparkyuchun
p1487
aI800
aa(lp1488
Vhappy7thanniversaryelf
p1489
aI723
aa(lp1490
Vhappy7thanniversaryelfs
p1491
aI2975
aa(lp1492
Vhappyajday
p1493
aI563
aa(lp1494
Vhappybirthday
p1495
aI1227
aa(lp1496
Vhappydays
p1497
aI742
aa(lp1498
Vhappyelfday
p1499
aI433
aa(lp1500
Vhappygirl
p1501
aI745
aa(lp1502
Vhappyhyunjoongday
p1503
aI609
aa(lp1504
Vhappysonnamsin
p1505
aI869
aa(lp1506
Vhappysunday
p1507
aI434
aa(lp1508
Vhappytweet
p1509
aI681
aa(lp1510
Vhard
p1511
aI448
aa(lp1512
Vhardcore
p1513
aI670
aa(lp1514
Vhardwork
p1515
aI659
aa(lp1516
Vharrypotter
p1517
aI515
aa(lp1518
Vhashtag
p1519
aI1031
aa(lp1520
Vhashtagz
p1521
aI670
aa(lp1522
Vhate
p1523
aI690
aa(lp1524
Vhateit
p1525
aI619
aa(lp1526
Vhavesandhavenots
p1527
aI575
aa(lp1528
Vhawaii
p1529
aI545
aa(lp1530
Vhawks
p1531
aI932
aa(lp1532
Vhdpalooza
p1533
aI521
aa(lp1534
Vheadache
p1535
aI464
aa(lp1536
Vheadline
p1537
aI464
aa(lp1538
Vhealth
p1539
aI3997
aa(lp1540
Vhealthcare
p1541
aI880
aa(lp1542
Vhealthy
p1543
aI1686
aa(lp1544
Vheart
p1545
aI770
aa(lp1546
Vheartbreaker
p1547
aI8454
aa(lp1548
Vheartbroken
p1549
aI480
aa(lp1550
Vheat
p1551
aI7813
aa(lp1552
Vheatnation
p1553
aI6630
aa(lp1554
Vheatvpacers
p1555
aI902
aa(lp1556
Vheatvspacers
p1557
aI635
aa(lp1558
Vheaven
p1559
aI1293
aa(lp1560
Vheels
p1561
aI427
aa(lp1562
Vhello
p1563
aI597
aa(lp1564
Vhellyeah
p1565
aI945
aa(lp1566
Vhelp
p1567
aI4333
aa(lp1568
Vhelpchloeto1million
p1569
aI1701
aa(lp1570
Vhelpme
p1571
aI1103
aa(lp1572
Vherewego
p1573
aI414
aa(lp1574
Vhero
p1575
aI609
aa(lp1576
Vhey5sos
p1577
aI2387
aa(lp1578
Vheyboo
p1579
aI606
aa(lp1580
Vhi
p1581
aI749
aa(lp1582
Vhigh
p1583
aI455
aa(lp1584
Vhighschool
p1585
aI442
aa(lp1586
Vhilarious
p1587
aI1734
aa(lp1588
Vhiphop
p1589
aI2653
aa(lp1590
Vhiring
p1591
aI1880
aa(lp1592
Vhistory
p1593
aI934
aa(lp1594
Vhitfollowsteam
p1595
aI1431
aa(lp1596
Vhitthefloor
p1597
aI563
aa(lp1598
Vhmm
p1599
aI740
aa(lp1600
Vhmmm
p1601
aI508
aa(lp1602
Vhmu
p1603
aI443
aa(lp1604
Vhockey
p1605
aI556
aa(lp1606
Vholiday
p1607
aI1387
aa(lp1608
Vholla
p1609
aI942
aa(lp1610
Vhollywood
p1611
aI1050
aa(lp1612
Vholyshit
p1613
aI545
aa(lp1614
Vhome
p1615
aI2822
aa(lp1616
Vhomemade
p1617
aI418
aa(lp1618
Vhomesweethome
p1619
aI474
aa(lp1620
Vhonestyhour
p1621
aI1202
aa(lp1622
Vhope
p1623
aI860
aa(lp1624
Vhorny
p1625
aI399
aa(lp1626
Vhorror
p1627
aI539
aa(lp1628
Vhosting
p1629
aI447
aa(lp1630
Vhot
p1631
aI4983
aa(lp1632
Vhotbreakfastcrashwithjianhao
p1633
aI471
aa(lp1634
Vhotel
p1635
aI659
aa(lp1636
Vhotels
p1637
aI462
aa(lp1638
Vhouse
p1639
aI1020
aa(lp1640
Vhouston
p1641
aI976
aa(lp1642
Vhow
p1643
aI530
aa(lp1644
Vhowigotdumped
p1645
aI454
aa(lp1646
Vhowto
p1647
aI2300
aa(lp1648
Vhowtogetablackgirl
p1649
aI742
aa(lp1650
Vhowtokillavampire
p1651
aI695
aa(lp1652
Vhr
p1653
aI846
aa(lp1654
Vhtnotvday
p1655
aI1060
aa(lp1656
Vhumor
p1657
aI914
aa(lp1658
Vhumpday
p1659
aI648
aa(lp1660
Vhungover
p1661
aI491
aa(lp1662
Vhungry
p1663
aI1800
aa(lp1664
Vhurry
p1665
aI472
aa(lp1666
Vhurryup
p1667
aI1023
aa(lp1668
Vhurt
p1669
aI546
aa(lp1670
Vhype
p1671
aI525
aa(lp1672
Vi
aI2478
aa(lp1673
Vibiza
p1674
aI589
aa(lp1675
Vicant
p1676
aI1130
aa(lp1677
Vicecream
p1678
aI953
aa(lp1679
Vidgaf
p1680
aI705
aa(lp1681
Vidiot
p1682
aI1152
aa(lp1683
Vidiots
p1684
aI556
aa(lp1685
Vidk
p1686
aI462
aa(lp1687
Vidol
p1688
aI455
aa(lp1689
Vifollowall
p1690
aI564
aa(lp1691
Vifollowback
p1692
aI1333
aa(lp1693
Vifollowyou
p1694
aI1530
aa(lp1695
Vifthepurgewasreal
p1696
aI720
aa(lp1697
Vifugotoablackpersonparty
p1698
aI588
aa(lp1699
Vig
p1700
aI791
aa(lp1701
Vigdaily
p1702
aI512
aa(lp1703
Vigers
p1704
aI1544
aa(lp1705
Vijs
p1706
aI714
aa(lp1707
Viloveit
p1708
aI725
aa(lp1709
Viloveyou
p1710
aI1726
aa(lp1711
Vily
p1712
aI506
aa(lp1713
Vimagine
p1714
aI2191
aa(lp1715
Vimdb
p1716
aI567
aa(lp1717
Vimdone
p1718
aI606
aa(lp1719
Vimissyou
p1720
aI566
aa(lp1721
Vimpatient
p1722
aI477
aa(lp1723
Vimsinglebecause
p1724
aI466
aa(lp1725
Vin
p1726
aI1572
aa(lp1727
Vinanotherlife
p1728
aI1070
aa(lp1729
Vinc
p1730
aI757
aa(lp1731
Vindia
p1732
aI1819
aa(lp1733
Vindian
p1734
aI641
aa(lp1735
Vindiana
p1736
aI494
aa(lp1737
Vindians
p1738
aI568
aa(lp1739
Vindie
p1740
aI723
aa(lp1741
Vindirectyourex
p1742
aI4661
aa(lp1743
Vindonesia
p1744
aI640
aa(lp1745
Vindycar
p1746
aI672
aa(lp1747
Vinfographic
p1748
aI490
aa(lp1749
Vinformation
p1750
aI522
aa(lp1751
Vinfosec
p1752
aI529
aa(lp1753
Vinitialsofsomeonespecial
p1754
aI7712
aa(lp1755
Vink
p1756
aI472
aa(lp1757
Vinlove
p1758
aI1403
aa(lp1759
Vinnovation
p1760
aI598
aa(lp1761
Vinsanity
p1762
aI538
aa(lp1763
Vinsomnia
p1764
aI696
aa(lp1765
Vinspiration
p1766
aI1716
aa(lp1767
Vinspirational
p1768
aI381
aa(lp1769
Vinspired
p1770
aI465
aa(lp1771
Vinstacollage
p1772
aI715
aa(lp1773
Vinstacool
p1774
aI544
aa(lp1775
Vinstadaily
p1776
aI1661
aa(lp1777
Vinstafood
p1778
aI735
aa(lp1779
Vinstagood
p1780
aI4005
aa(lp1781
Vinstagram
p1782
aI4444
aa(lp1783
Vinstalike
p1784
aI1185
aa(lp1785
Vinstalove
p1786
aI744
aa(lp1787
Vinstamood
p1788
aI1749
aa(lp1789
Vinstantfollow
p1790
aI883
aa(lp1791
Vinstantfollowback
p1792
aI2388
aa(lp1793
Vinstaphoto
p1794
aI747
aa(lp1795
Vinstapic
p1796
aI1589
aa(lp1797
Vinsurance
p1798
aI423
aa(lp1799
Vinteresting
p1800
aI462
aa(lp1801
Vintern
p1802
aI471
aa(lp1803
Vinternet
p1804
aI636
aa(lp1805
Vinternship
p1806
aI563
aa(lp1807
Viomtt
p1808
aI533
aa(lp1809
Vios
p1810
aI859
aa(lp1811
Viphone5
p1812
aI530
aa(lp1813
Viphonesia
p1814
aI664
aa(lp1815
Viran
p1816
aI868
aa(lp1817
Vireland
p1818
aI480
aa(lp1819
Virememberigotintroublefor
p1820
aI11677
aa(lp1821
Virs
p1822
aI2469
aa(lp1823
Vis
p1824
aI521
aa(lp1825
Vislam
p1826
aI883
aa(lp1827
Visrael
p1828
aI1045
aa(lp1829
Vistanbul
p1830
aI1418
aa(lp1831
Visthatweird
p1832
aI1230
aa(lp1833
Vit
p1834
aI1520
aa(lp1835
Vitaly
p1836
aI959
aa(lp1837
Vitsintheair
p1838
aI431
aa(lp1839
Vitunes
p1840
aI1614
aa(lp1841
Viwish
p1842
aI827
aa(lp1843
Vjaifollowmeyouasshole
p1844
aI7380
aa(lp1845
Vjakarta
p1846
aI581
aa(lp1847
Vjanoskiansnewvideo
p1848
aI1019
aa(lp1849
Vjapan
p1850
aI1368
aa(lp1851
Vjazz
p1852
aI634
aa(lp1853
Vjealous
p1854
aI1874
aa(lp1855
Vjesus
p1856
aI1757
aa(lp1857
Vjewelry
p1858
aI1756
aa(lp1859
Vjfb
p1860
aI597
aa(lp1861
Vjhalak
p1862
aI818
aa(lp1863
Vjk
p1864
aI1454
aa(lp1865
Vjobs4u
p1866
aI1964
aa(lp1867
Vjobsearch
p1868
aI1184
aa(lp1869
Vjodiarias
p1870
aI453
aa(lp1871
Vjoke
p1872
aI807
aa(lp1873
Vjokes
p1874
aI816
aa(lp1875
Vjordan
p1876
aI593
aa(lp1877
Vjoseof7days
p1878
aI563
aa(lp1879
Vjoshandjoeykeek
p1880
aI501
aa(lp1881
Vjoy
p1882
aI424
aa(lp1883
Vjpnvaus
p1884
aI577
aa(lp1885
Vjs
p1886
aI725
aa(lp1887
Vjudgeme
p1888
aI1313
aa(lp1889
Vjune
p1890
aI1896
aa(lp1891
Vjunephotochallenge
p1892
aI492
aa(lp1893
Vjunewish
p1894
aI7508
aa(lp1895
Vjust
p1896
aI426
aa(lp1897
Vjustinbieber
p1898
aI1022
aa(lp1899
Vjustkidding
p1900
aI647
aa(lp1901
Vjustsayin
p1902
aI1708
aa(lp1903
Vjustsaying
p1904
aI4321
aa(lp1905
Vjuststop
p1906
aI482
aa(lp1907
Vk
aI881
aa(lp1908
Vkarachi
p1909
aI470
aa(lp1910
Vkards
p1911
aI537
aa(lp1912
Vkarma
p1913
aI611
aa(lp1914
Vkathrynbernardotheasianprincess
p1915
aI451
aa(lp1916
Vkawaii_pet
p1917
aI565
aa(lp1918
Vkcco
p1919
aI475
aa(lp1920
Vkeek
p1921
aI1142
aa(lp1922
Vkeepcalmand
p1923
aI507
aa(lp1924
Vkendallschmidttedoy
p1925
aI444
aa(lp1926
Vkenya
p1927
aI549
aa(lp1928
Vkids
p1929
aI1416
aa(lp1930
Vkillme
p1931
aI1019
aa(lp1932
Vkillmenow
p1933
aI1225
aa(lp1934
Vkindle
p1935
aI1847
aa(lp1936
Vking
p1937
aI455
aa(lp1938
Vkingjames
p1939
aI451
aa(lp1940
Vkings
p1941
aI838
aa(lp1942
Vkiss
p1943
aI644
aa(lp1944
Vkisskisslovato
p1945
aI1381
aa(lp1946
Vkitty
p1947
aI530
aa(lp1948
Vkpop
p1949
aI518
aa(lp1950
Vkuwtk
p1951
aI1803
aa(lp1952
Vkuwtk8
p1953
aI774
aa(lp1954
Vl4l
p1955
aI820
aa(lp1956
Vla
p1957
aI1237
aa(lp1958
Vlad
p1959
aI452
aa(lp1960
Vladies
p1961
aI497
aa(lp1962
Vladyvols
p1963
aI463
aa(lp1964
Vlake
p1965
aI537
aa(lp1966
Vlakings
p1967
aI927
aa(lp1968
Vlame
p1969
aI1096
aa(lp1970
Vlanimisaluchaandbambooconcerts
p1971
aI806
aa(lp1972
Vlastfm
p1973
aI2846
aa(lp1974
Vlastnight
p1975
aI614
aa(lp1976
Vlasvegas
p1977
aI578
aa(lp1978
Vlate
p1979
aI508
aa(lp1980
Vlatenight
p1981
aI410
aa(lp1982
Vlatepost
p1983
aI826
aa(lp1984
Vlatergram
p1985
aI591
aa(lp1986
Vlaugh
p1987
aI472
aa(lp1988
Vlaw
p1989
aI689
aa(lp1990
Vlazy
p1991
aI2043
aa(lp1992
Vlazyday
p1993
aI406
aa(lp1994
Vleadership
p1995
aI1350
aa(lp1996
Vleavemealone
p1997
aI533
aa(lp1998
Vlebanon
p1999
aI556
aa(lp2000
Vlebron
p2001
aI896
aa(lp2002
Vlebronranlike
p2003
aI598
aa(lp2004
Vlegend
p2005
aI1976
aa(lp2006
Vleggo
p2007
aI1280
aa(lp2008
Vleo
p2009
aI2690
aa(lp2010
Vletsdothis
p2011
aI631
aa(lp2012
Vletsgetit
p2013
aI677
aa(lp2014
Vletsgo
p2015
aI1995
aa(lp2016
Vletsgoheat
p2017
aI2603
aa(lp2018
Vletsgopens
p2019
aI946
aa(lp2020
Vletstweetlikeliberals
p2021
aI433
aa(lp2022
Vlfc
p2023
aI2315
aa(lp2024
Vlgbt
p2025
aI1012
aa(lp2026
Vlhhatl
p2027
aI4521
aa(lp2028
Vlibra
p2029
aI1284
aa(lp2030
Vlies
p2031
aI602
aa(lp2032
Vliestoldontwitter
p2033
aI576
aa(lp2034
Vlife
p2035
aI5539
aa(lp2036
Vlifeisgood
p2037
aI725
aa(lp2038
Vlifestyle
p2039
aI591
aa(lp2040
Vlight
p2041
aI480
aa(lp2042
Vlike
p2043
aI2869
aa(lp2044
Vlike2
p2045
aI1020
aa(lp2046
Vlike4like
p2047
aI961
aa(lp2048
Vlikeaboss
p2049
aI686
aa(lp2050
Vlikeforlike
p2051
aI1202
aa(lp2052
Vlinux
p2053
aI596
aa(lp2054
Vlions
p2055
aI1748
aa(lp2056
Vlions2013
p2057
aI762
aa(lp2058
Vlionstour
p2059
aI639
aa(lp2060
Vlisten
p2061
aI1160
aa(lp2062
Vlisteningto
p2063
aI404
aa(lp2064
Vlistenlive
p2065
aI8246
aa(lp2066
Vlistia
p2067
aI1171
aa(lp2068
Vliterally
p2069
aI497
aa(lp2070
Vlive
p2071
aI2045
aa(lp2072
Vlivingthedream
p2073
aI449
aa(lp2074
Vllc
p2075
aI461
aa(lp2076
Vlmao
p2077
aI1941
aa(lp2078
Vlmfao
p2079
aI883
aa(lp2080
Vlnyhbt
p2081
aI485
aa(lp2082
Vlogic
p2083
aI525
aa(lp2084
Vlohanthonyfollowme
p2085
aI2506
aa(lp2086
Vlol
p2087
aI10497
aa(lp2088
Vlolz
p2089
aI525
aa(lp2090
Vlondon
p2091
aI3242
aa(lp2092
Vlonely
p2093
aI874
aa(lp2094
Vloner
p2095
aI726
aa(lp2096
Vlong
p2097
aI467
aa(lp2098
Vlongday
p2099
aI669
aa(lp2100
Vlongislandmedium
p2101
aI417
aa(lp2102
Vlongtime
p2103
aI1046
aa(lp2104
Vloop
p2105
aI2004
aa(lp2106
Vlosangeles
p2107
aI706
aa(lp2108
Vloser
p2109
aI1120
aa(lp2110
Vlost
p2111
aI846
aa(lp2112
Vloveher
p2113
aI3211
aa(lp2114
Vlovehim
p2115
aI2267
aa(lp2116
Vloveit
p2117
aI5482
aa(lp2118
Vlovelife
p2119
aI424
aa(lp2120
Vlovely
p2121
aI945
aa(lp2122
Vlovemyjob
p2123
aI405
aa(lp2124
Vlovethem
p2125
aI1745
aa(lp2126
Vloveya
p2127
aI538
aa(lp2128
Vloveyou
p2129
aI4215
aa(lp2130
Vlovinglife
p2131
aI733
aa(lp2132
Vlow
p2133
aI732
aa(lp2134
Vlowkey
p2135
aI401
aa(lp2136
Vloyalty
p2137
aI413
aa(lp2138
Vlrt
p2139
aI4387
aa(lp2140
Vlss
p2141
aI458
aa(lp2142
Vlt
p2143
aI4589
aa(lp2144
Vlucky
p2145
aI819
aa(lp2146
Vlukebryan
p2147
aI544
aa(lp2148
Vlukesarmy
p2149
aI444
aa(lp2150
Vlunch
p2151
aI1136
aa(lp2152
Vluxury
p2153
aI596
aa(lp2154
Vlyrics
p2155
aI959
aa(lp2156
Vm
aI409
aa(lp2157
Vmac
p2158
aI517
aa(lp2159
Vmad
p2160
aI515
aa(lp2161
Vmadeinchelsea
p2162
aI1623
aa(lp2163
Vmademyday
p2164
aI430
aa(lp2165
Vmadmen
p2166
aI1625
aa(lp2167
Vmagic
p2168
aI1137
aa(lp2169
Vmakeup
p2170
aI1810
aa(lp2171
Vman
p2172
aI398
aa(lp2173
Vmanagement
p2174
aI437
aa(lp2175
Vmancandymonday
p2176
aI617
aa(lp2177
Vmanchester
p2178
aI582
aa(lp2179
Vmancrushmonday
p2180
aI789
aa(lp2181
Vmanning
p2182
aI667
aa(lp2183
Vmanofsteel
p2184
aI807
aa(lp2185
Vmariners
p2186
aI442
aa(lp2187
Vmarketing
p2188
aI3092
aa(lp2189
Vmasterchefau
p2190
aI605
aa(lp2191
Vmattsmith
p2192
aI438
aa(lp2193
Vmaxvip
p2194
aI735
aa(lp2195
Vmaybe
p2196
aI483
aa(lp2197
Vmccann
p2198
aI566
aa(lp2199
Vmcdonalds
p2200
aI438
aa(lp2201
Vmcfc
p2202
aI726
aa(lp2203
Vmcm
p2204
aI1206
aa(lp2205
Vmcountdownina
p2206
aI793
aa(lp2207
Vme
p2208
aI7476
aa(lp2209
Vmedia
p2210
aI887
aa(lp2211
Vmelbourne
p2212
aI413
aa(lp2213
Vmeme
p2214
aI499
aa(lp2215
Vmemories
p2216
aI2876
aa(lp2217
Vmen
p2218
aI643
aa(lp2219
Vmentionanattractivefeature
p2220
aI5365
aa(lp2221
Vmentionattractivefeatures
p2222
aI448
aa(lp2223
Vmentionaturnoff
p2224
aI773
aa(lp2225
Vmentionsomeonehassweetsmile
p2226
aI1431
aa(lp2227
Vmentionto
p2228
aI2166
aa(lp2229
Vmeow
p2230
aI687
aa(lp2231
Vmerica
p2232
aI1042
aa(lp2233
Vmetal
p2234
aI740
aa(lp2235
Vmets
p2236
aI905
aa(lp2237
Vmexico
p2238
aI814
aa(lp2239
Vmiami
p2240
aI2197
aa(lp2241
Vmiamiheat
p2242
aI1662
aa(lp2243
Vmic
p2244
aI1901
aa(lp2245
Vmiddleschoolmemories
p2246
aI2612
aa(lp2247
Vmilf
p2248
aI584
aa(lp2249
Vmilitary
p2250
aI536
aa(lp2251
Vmindblown
p2252
aI1190
aa(lp2253
Vmine
p2254
aI423
aa(lp2255
Vminecraft
p2256
aI508
aa(lp2257
Vmissher
p2258
aI415
aa(lp2259
Vmissit
p2260
aI504
aa(lp2261
Vmissyou
p2262
aI1986
aa(lp2263
Vmistresses
p2264
aI906
aa(lp2265
Vmixlr
p2266
aI515
aa(lp2267
Vmixtape
p2268
aI727
aa(lp2269
Vmlb
p2270
aI2802
aa(lp2271
Vmls
p2272
aI418
aa(lp2273
Vmma
p2274
aI708
aa(lp2275
Vmmg
p2276
aI427
aa(lp2277
Vmmk
p2278
aI602
aa(lp2279
Vmmm
p2280
aI441
aa(lp2281
Vmobile
p2282
aI1471
aa(lp2283
Vmodel
p2284
aI1131
aa(lp2285
Vmom
p2286
aI753
aa(lp2287
Vmonday
p2288
aI1276
aa(lp2289
Vmoney
p2290
aI1828
aa(lp2291
Vmontreal
p2292
aI459
aa(lp2293
Vmorning
p2294
aI1561
aa(lp2295
Vmotivated
p2296
aI582
aa(lp2297
Vmotivation
p2298
aI1912
aa(lp2299
Vmotogp
p2300
aI534
aa(lp2301
Vmourinho
p2302
aI865
aa(lp2303
Vmovie
p2304
aI2051
aa(lp2305
Vmovies
p2306
aI2422
aa(lp2307
Vmp3
p2308
aI730
aa(lp2309
Vmqm
p2310
aI509
aa(lp2311
Vmsteched
p2312
aI835
aa(lp2313
Vmtv
p2314
aI754
aa(lp2315
Vmuchlove
p2316
aI1386
aa(lp2317
Vmuchneeded
p2318
aI596
aa(lp2319
Vmufc
p2320
aI2799
aa(lp2321
Vmuse
p2322
aI430
aa(lp2323
Vmusic
p2324
aI14927
aa(lp2325
Vmusicmonday
p2326
aI529
aa(lp2327
Vmustfollow
p2328
aI2770
aa(lp2329
Vmy
p2330
aI1808
aa(lp2331
Vmybaby
p2332
aI526
aa(lp2333
Vmybad
p2334
aI684
aa(lp2335
Vmyboyfriendisnotallowedto
p2336
aI2223
aa(lp2337
Vmyboyfriendnotallowed
p2338
aI443
aa(lp2339
Vmyboyfriendnotallowedto
p2340
aI12201
aa(lp2341
Vmyboyfriendsnotallowedto
p2342
aI473
aa(lp2343
Vmygirlfriendisnotallowedto
p2344
aI4695
aa(lp2345
Vmygirlfriendnotallowed
p2346
aI648
aa(lp2347
Vmylife
p2348
aI2190
aa(lp2349
Vmylove
p2350
aI424
aa(lp2351
Vmystery
p2352
aI428
aa(lp2353
Vnailart
p2354
aI428
aa(lp2355
Vnails
p2356
aI1012
aa(lp2357
Vnaked
p2358
aI488
aa(lp2359
Vnaptime
p2360
aI623
aa(lp2361
Vnascar
p2362
aI2029
aa(lp2363
Vnashville
p2364
aI686
aa(lp2365
Vnasty
p2366
aI595
aa(lp2367
Vnationaljasminatorday
p2368
aI664
aa(lp2369
Vnationalrunningday
p2370
aI1344
aa(lp2371
Vnats
p2372
aI640
aa(lp2373
Vnatural
p2374
aI629
aa(lp2375
Vnature
p2376
aI1974
aa(lp2377
Vnavy
p2378
aI425
aa(lp2379
Vnba
p2380
aI4471
aa(lp2381
Vnbafinals
p2382
aI1641
aa(lp2383
Vnbaplayoffs
p2384
aI2738
aa(lp2385
Vnbd
p2386
aI686
aa(lp2387
Vnc
p2388
aI441
aa(lp2389
Vneed
p2390
aI473
aa(lp2391
Vneedsleep
p2392
aI641
aa(lp2393
Vnephew
p2394
aI530
aa(lp2395
Vnerd
p2396
aI804
aa(lp2397
Vnervous
p2398
aI1380
aa(lp2399
Vnetflix
p2400
aI733
aa(lp2401
Vnever
p2402
aI524
aa(lp2403
Vneveragain
p2404
aI724
aa(lp2405
Vneversaynever
p2406
aI713
aa(lp2407
Vnew
p2408
aI4033
aa(lp2409
Vnewjoshjoeymusic
p2410
aI782
aa(lp2411
Vnewlangitmusik
p2412
aI640
aa(lp2413
Vnewmusic
p2414
aI1438
aa(lp2415
Vnews
p2416
aI13245
aa(lp2417
Vnewyork
p2418
aI1285
aa(lp2419
Vnf
p2420
aI1547
aa(lp2421
Vnfb
p2422
aI519
aa(lp2423
Vnfl
p2424
aI1717
aa(lp2425
Vnhl
p2426
aI1579
aa(lp2427
Vnhlplayoffs
p2428
aI586
aa(lp2429
Vnice
p2430
aI1671
aa(lp2431
Vnigeria
p2432
aI709
aa(lp2433
Vnight
p2434
aI2308
aa(lp2435
Vnike
p2436
aI1277
aa(lp2437
Vnikeplus
p2438
aI3343
aa(lp2439
Vnj
p2440
aI491
aa(lp2441
Vno
p2442
aI3273
aa(lp2443
Vnobueno
p2444
aI565
aa(lp2445
Vnodaysoff
p2446
aI530
aa(lp2447
Vnofilter
p2448
aI3557
aa(lp2449
Vnofriends
p2450
aI568
aa(lp2451
Vnohomo
p2452
aI1740
aa(lp2453
Vnojoke
p2454
aI544
aa(lp2455
Vnola
p2456
aI434
aa(lp2457
Vnolie
p2458
aI767
aa(lp2459
Vnolife
p2460
aI1158
aa(lp2461
Vnom
p2462
aI476
aa(lp2463
Vnomakeup
p2464
aI487
aa(lp2465
Vnomnom
p2466
aI509
aa(lp2467
Vnonewfriends
p2468
aI612
aa(lp2469
Vnope
p2470
aI461
aa(lp2471
Vnoregrets
p2472
aI478
aa(lp2473
Vnorthamerica
p2474
aI683
aa(lp2475
Vnoshame
p2476
aI1312
aa(lp2477
Vnosleep
p2478
aI1001
aa(lp2479
Vnot
p2480
aI3589
aa(lp2481
Vnotcool
p2482
aI1200
aa(lp2483
Vnotfair
p2484
aI651
aa(lp2485
Vnotgood
p2486
aI649
aa(lp2487
Vnothanks
p2488
aI474
aa(lp2489
Vnothappy
p2490
aI588
aa(lp2491
Vnothingtolose
p2492
aI1210
aa(lp2493
Vnothingtolosetonumber1
p2494
aI618
aa(lp2495
Vnotokay
p2496
aI467
aa(lp2497
Vnotreally
p2498
aI857
aa(lp2499
Vnotsorry
p2500
aI440
aa(lp2501
Vnow
p2502
aI2132
aa(lp2503
Vnowfollowing
p2504
aI710
aa(lp2505
Vnowlistening
p2506
aI626
aa(lp2507
Vnoworries
p2508
aI656
aa(lp2509
Vnowwatching
p2510
aI2138
aa(lp2511
Vnowyouseeme
p2512
aI1209
aa(lp2513
Vnrl
p2514
aI400
aa(lp2515
Vnsfw
p2516
aI1503
aa(lp2517
Vnsw
p2518
aI542
aa(lp2519
Vnude
p2520
aI475
aa(lp2521
Vnuffsaid
p2522
aI740
aa(lp2523
Vnursing
p2524
aI458
aa(lp2525
Vnutrition
p2526
aI629
aa(lp2527
Vnw
p2528
aI7775
aa(lp2529
Vnwo
p2530
aI400
aa(lp2531
Vny
p2532
aI884
aa(lp2533
Vnyc
p2534
aI4205
aa(lp2535
Vo
aI423
aa(lp2536
Vobama
p2537
aI1303
aa(lp2538
Vobamacare
p2539
aI457
aa(lp2540
Vobffor3peat
p2541
aI631
aa(lp2542
Vobsessed
p2543
aI1671
aa(lp2544
Voccupy
p2545
aI458
aa(lp2546
Voccupygezi
p2547
aI8083
aa(lp2548
Voccupytaksim
p2549
aI410
aa(lp2550
Voccupyturkey
p2551
aI1688
aa(lp2552
Vocean
p2553
aI492
aa(lp2554
Vof
p2555
aI627
aa(lp2556
Voff
p2557
aI1328
aa(lp2558
Voffline
p2559
aI1342
aa(lp2560
Voh
p2561
aI983
aa(lp2562
Vohwell
p2563
aI3217
aa(lp2564
Vok
p2565
aI967
aa(lp2566
Vokay
p2567
aI490
aa(lp2568
Vokc
p2569
aI725
aa(lp2570
Voklahoma
p2571
aI1393
aa(lp2572
Vokwx
p2573
aI760
aa(lp2574
Vold
p2575
aI885
aa(lp2576
Voldschool
p2577
aI948
aa(lp2578
Vomg
p2579
aI2460
aa(lp2580
Von
p2581
aI1078
aa(lp2582
Vone
p2583
aI468
aa(lp2584
Vonedirection
p2585
aI1175
aa(lp2586
Vonelove
p2587
aI576
aa(lp2588
Vonline
p2589
aI1598
aa(lp2590
Vonlyinthephilippines
p2591
aI433
aa(lp2592
Vonrepeat
p2593
aI415
aa(lp2594
Voomfs
p2595
aI1203
aa(lp2596
Voops
p2597
aI3619
aa(lp2598
Vootd
p2599
aI2044
aa(lp2600
Vopenfollow
p2601
aI6300
aa(lp2602
Vopturkey
p2603
aI654
aa(lp2604
Vorange
p2605
aI517
aa(lp2606
Vorganic
p2607
aI529
aa(lp2608
Vorigin
p2609
aI2808
aa(lp2610
Vorioles
p2611
aI643
aa(lp2612
Vorlando
p2613
aI698
aa(lp2614
Vorphanblack
p2615
aI876
aa(lp2616
Vottawa
p2617
aI455
aa(lp2618
Vou
p2619
aI425
aa(lp2620
Vouch
p2621
aI3196
aa(lp2622
Vout
p2623
aI820
aa(lp2624
Voutdoors
p2625
aI433
aa(lp2626
Voverit
p2627
aI742
aa(lp2628
Voverloadontwitcam
p2629
aI450
aa(lp2630
Vow
p2631
aI406
aa(lp2632
Vows
p2633
aI570
aa(lp2634
Vowychat
p2635
aI716
aa(lp2636
Vp2
p2637
aI2528
aa(lp2638
Vpacernation
p2639
aI748
aa(lp2640
Vpacers
p2641
aI5506
aa(lp2642
Vpain
p2643
aI1062
aa(lp2644
Vpainting
p2645
aI621
aa(lp2646
Vpakistan
p2647
aI2056
aa(lp2648
Vpandora
p2649
aI4349
aa(lp2650
Vparadise
p2651
aI444
aa(lp2652
Vparadisetour
p2653
aI513
aa(lp2654
Vparenting
p2655
aI606
aa(lp2656
Vparents
p2657
aI452
aa(lp2658
Vparis
p2659
aI1097
aa(lp2660
Vpark
p2661
aI524
aa(lp2662
Vparty
p2663
aI3711
aa(lp2664
Vpartytime
p2665
aI465
aa(lp2666
Vpassion
p2667
aI435
aa(lp2668
Vpathetic
p2669
aI988
aa(lp2670
Vpause
p2671
aI556
aa(lp2672
Vpc
p2673
aI479
aa(lp2674
Vpeace
p2675
aI1691
aa(lp2676
Vpenguins
p2677
aI1082
aa(lp2678
Vpens
p2679
aI2459
aa(lp2680
Vpeople
p2681
aI791
aa(lp2682
Vperfect
p2683
aI3246
aa(lp2684
Vperfection
p2685
aI1334
aa(lp2686
Vperiod
p2687
aI462
aa(lp2688
Vperksofdatingme
p2689
aI2049
aa(lp2690
Vpet
p2691
aI537
aa(lp2692
Vpetpeeve
p2693
aI762
aa(lp2694
Vpets
p2695
aI534
aa(lp2696
Vpgt4
p2697
aI485
aa(lp2698
Vpgt4finale
p2699
aI692
aa(lp2700
Vpharmacy
p2701
aI425
aa(lp2702
Vphiladelphia
p2703
aI426
aa(lp2704
Vphilippines
p2705
aI577
aa(lp2706
Vphillies
p2707
aI1131
aa(lp2708
Vphilly
p2709
aI800
aa(lp2710
Vphone
p2711
aI568
aa(lp2712
Vphoto
p2713
aI2957
aa(lp2714
Vphotography
p2715
aI5107
aa(lp2716
Vphotooftheday
p2717
aI2400
aa(lp2718
Vphotos
p2719
aI583
aa(lp2720
Vphotoshoot
p2721
aI595
aa(lp2722
Vpic
p2723
aI712
aa(lp2724
Vpickone
p2725
aI762
aa(lp2726
Vpicoftheday
p2727
aI1600
aa(lp2728
Vpicslip
p2729
aI467
aa(lp2730
Vpicstitch
p2731
aI1362
aa(lp2732
Vpicture
p2733
aI541
aa(lp2734
Vpills
p2735
aI396
aa(lp2736
Vpink
p2737
aI1901
aa(lp2738
Vpinterest
p2739
aI584
aa(lp2740
Vpirates
p2741
aI580
aa(lp2742
Vpisces
p2743
aI2912
aa(lp2744
Vpissed
p2745
aI1716
aa(lp2746
Vpissedoff
p2747
aI459
aa(lp2748
Vpittsburgh
p2749
aI515
aa(lp2750
Vpizza
p2751
aI829
aa(lp2752
Vpjnet
p2753
aI914
aa(lp2754
Vplay
p2755
aI425
aa(lp2756
Vplayoffs
p2757
aI748
aa(lp2758
Vplease
p2759
aI3664
aa(lp2760
Vpll
p2761
aI1402
aa(lp2762
Vpllchat
p2763
aI1404
aa(lp2764
Vpmln
p2765
aI441
aa(lp2766
Vpoetry
p2767
aI641
aa(lp2768
Vpointless
p2769
aI620
aa(lp2770
Vpoker
p2771
aI446
aa(lp2772
Vpolice
p2773
aI516
aa(lp2774
Vpolitics
p2775
aI932
aa(lp2776
Vpool
p2777
aI983
aa(lp2778
Vpop
p2779
aI495
aa(lp2780
Vporn
p2781
aI4650
aa(lp2782
Vporno
p2783
aI1490
aa(lp2784
Vpositive
p2785
aI466
aa(lp2786
Vpotd
p2787
aI420
aa(lp2788
Vpou
p2789
aI398
aa(lp2790
Vpow
p2791
aI430
aa(lp2792
Vpower
p2793
aI762
aa(lp2794
Vpr
p2795
aI848
aa(lp2796
Vpray
p2797
aI881
aa(lp2798
Vprayer
p2799
aI745
aa(lp2800
Vprayforoklahoma
p2801
aI476
aa(lp2802
Vprayforparisjackson
p2803
aI493
aa(lp2804
Vprayforturkey
p2805
aI1059
aa(lp2806
Vpraying
p2807
aI480
aa(lp2808
Vpreach
p2809
aI686
aa(lp2810
Vpreclassic
p2811
aI490
aa(lp2812
Vpretty
p2813
aI1808
aa(lp2814
Vprettylittleliars
p2815
aI950
aa(lp2816
Vprevioustweet
p2817
aI708
aa(lp2818
Vprevtweet
p2819
aI538
aa(lp2820
Vpriceless
p2821
aI1243
aa(lp2822
Vpride
p2823
aI583
aa(lp2824
Vprincess
p2825
aI611
aa(lp2826
Vpriorities
p2827
aI822
aa(lp2828
Vproblems
p2829
aI513
aa(lp2830
Vprocrastination
p2831
aI666
aa(lp2832
Vprogress
p2833
aI696
aa(lp2834
Vproinstadotcom
p2835
aI587
aa(lp2836
Vprom
p2837
aI1053
aa(lp2838
Vpromise
p2839
aI1281
aa(lp2840
Vpromo
p2841
aI444
aa(lp2842
Vproperty
p2843
aI409
aa(lp2844
Vprosofdatingme
p2845
aI1534
aa(lp2846
Vproud
p2847
aI2823
aa(lp2848
Vps3
p2849
aI584
aa(lp2850
Vpt
p2851
aI1178
aa(lp2852
Vpti
p2853
aI968
aa(lp2854
Vpublicwankingonyoutube
p2855
aI6436
aa(lp2856
Vpumped
p2857
aI1334
aa(lp2858
Vpuppy
p2859
aI1216
aa(lp2860
Vpuppylove
p2861
aI460
aa(lp2862
Vpurple
p2863
aI525
aa(lp2864
Vpussy
p2865
aI3146
aa(lp2866
Vqanda
p2867
aI1191
aa(lp2868
Vqna
p2869
aI10907
aa(lp2870
Vqt
p2871
aI506
aa(lp2872
Vquality
p2873
aI454
aa(lp2874
Vqueen
p2875
aI507
aa(lp2876
Vquote
p2877
aI6872
aa(lp2878
Vquoteoftheday
p2879
aI543
aa(lp2880
Vquotes
p2881
aI3932
aa(lp2882
Vr
aI624
aa(lp2883
Vr_family
p2884
aI890
aa(lp2885
Vradio
p2886
aI1201
aa(lp2887
Vrage
p2888
aI464
aa(lp2889
Vrageofbahamut
p2890
aI2775
aa(lp2891
Vrain
p2892
aI1030
aa(lp2893
Vrandom
p2894
aI2198
aa(lp2895
Vrandomthought
p2896
aI516
aa(lp2897
Vrangers
p2898
aI510
aa(lp2899
Vrap
p2900
aI1413
aa(lp2901
Vrare
p2902
aI484
aa(lp2903
Vratchet
p2904
aI951
aa(lp2905
Vraw
p2906
aI4956
aa(lp2907
Vrays
p2908
aI479
aa(lp2909
Vread
p2910
aI419
aa(lp2911
Vreading
p2912
aI763
aa(lp2913
Vready
p2914
aI685
aa(lp2915
Vreal
p2916
aI1241
aa(lp2917
Vrealestate
p2918
aI2204
aa(lp2919
Vreally
p2920
aI950
aa(lp2921
Vrealmadrid
p2922
aI439
aa(lp2923
Vrealshit
p2924
aI975
aa(lp2925
Vrealtalk
p2926
aI3101
aa(lp2927
Vrebel
p2928
aI545
aa(lp2929
Vrecipe
p2930
aI516
aa(lp2931
Vrecipes
p2932
aI409
aa(lp2933
Vred
p2934
aI1663
aa(lp2935
Vreddit
p2936
aI570
aa(lp2937
Vredgage
p2938
aI493
aa(lp2939
Vreds
p2940
aI889
aa(lp2941
Vredsox
p2942
aI1220
aa(lp2943
Vredwedding
p2944
aI2116
aa(lp2945
Vreggae
p2946
aI482
aa(lp2947
Vregram
p2948
aI479
aa(lp2949
Vrelationships
p2950
aI519
aa(lp2951
Vrelax
p2952
aI1092
aa(lp2953
Vrelaxing
p2954
aI997
aa(lp2955
Vremake
p2956
aI558
aa(lp2957
Vremix
p2958
aI451
aa(lp2959
Vrepeat
p2960
aI508
aa(lp2961
Vreplytweet
p2962
aI661
aa(lp2963
Vrepost
p2964
aI3405
aa(lp2965
Vrespect
p2966
aI3266
aa(lp2967
Vretail
p2968
aI677
aa(lp2969
Vretro
p2970
aI443
aa(lp2971
Vretweet
p2972
aI6829
aa(lp2973
Vretweets
p2974
aI548
aa(lp2975
Vreunited
p2976
aI412
aa(lp2977
Vrevenge
p2978
aI832
aa(lp2979
Vreview
p2980
aI562
aa(lp2981
Vrevision
p2982
aI517
aa(lp2983
Vrevolution
p2984
aI919
aa(lp2985
Vrg13
p2986
aI3328
aa(lp2987
Vrhonj
p2988
aI2281
aa(lp2989
Vridiculous
p2990
aI623
aa(lp2991
Vrihanna
p2992
aI637
aa(lp2993
Vrip
p2994
aI2835
aa(lp2995
Vrnb
p2996
aI566
aa(lp2997
Vrns
p2998
aI1119
aa(lp2999
Vroadtrip
p3000
aI1311
aa(lp3001
Vrock
p3002
aI1126
aa(lp3003
Vrolandgarros
p3004
aI908
aa(lp3005
Vromance
p3006
aI922
aa(lp3007
Vroom94followingspree
p3008
aI985
aa(lp3009
Vroyals
p3010
aI598
aa(lp3011
Vrp
p3012
aI825
aa(lp3013
Vrs
p3014
aI457
aa(lp3015
Vrude
p3016
aI986
aa(lp3017
Vrugby
p3018
aI828
aa(lp3019
Vrun
p3020
aI1246
aa(lp3021
Vrunchat
p3022
aI509
aa(lp3023
Vrunkeeper
p3024
aI3080
aa(lp3025
Vrunning
p3026
aI1658
aa(lp3027
Vruntastic
p3028
aI620
aa(lp3029
Vrunwaykate
p3030
aI884
aa(lp3031
Vrunwayvalerie
p3032
aI1434
aa(lp3033
Vrussia
p3034
aI601
aa(lp3035
Vs
aI746
aa(lp3036
Vsad
p3037
aI3247
aa(lp3038
Vsadface
p3039
aI603
aa(lp3040
Vsadlife
p3041
aI442
aa(lp3042
Vsadtimes
p3043
aI443
aa(lp3044
Vsadtweet
p3045
aI1966
aa(lp3046
Vsagittarius
p3047
aI1588
aa(lp3048
Vsaidnooneever
p3049
aI508
aa(lp3050
Vsale
p3051
aI1335
aa(lp3052
Vsales
p3053
aI1096
aa(lp3054
Vsalute
p3055
aI2441
aa(lp3056
Vsamandcat1week
p3057
aI1215
aa(lp3058
Vsamandcatthissaturday
p3059
aI2422
aa(lp3060
Vsamsung
p3061
aI465
aa(lp3062
Vsamuraiempire
p3063
aI1011
aa(lp3064
Vsandiego
p3065
aI520
aa(lp3066
Vsanfrancisco
p3067
aI478
aa(lp3068
Vsarcasm
p3069
aI1501
aa(lp3070
Vsaroohamalikfollowme
p3071
aI530
aa(lp3072
Vsaturday
p3073
aI1393
aa(lp3074
Vsaveme
p3075
aI499
aa(lp3076
Vscandal
p3077
aI465
aa(lp3078
Vscared
p3079
aI1385
aa(lp3080
Vscary
p3081
aI1200
aa(lp3082
Vschool
p3083
aI1768
aa(lp3084
Vscience
p3085
aI1146
aa(lp3086
Vscore
p3087
aI801
aa(lp3088
Vscorpio
p3089
aI2215
aa(lp3090
Vsea
p3091
aI652
aa(lp3092
Vseattle
p3093
aI756
aa(lp3094
Vsecretlife
p3095
aI980
aa(lp3096
Vsecurity
p3097
aI802
aa(lp3098
Vselenalivechat
p3099
aI5700
aa(lp3100
Vselfie
p3101
aI4013
aa(lp3102
Vselfiesunday
p3103
aI502
aa(lp3104
Vsenior
p3105
aI519
aa(lp3106
Vseniors
p3107
aI686
aa(lp3108
Vseo
p3109
aI2275
aa(lp3110
Vseriously
p3111
aI1916
aa(lp3112
Vsex
p3113
aI5242
aa(lp3114
Vsexo
p3115
aI456
aa(lp3116
Vsexy
p3117
aI4159
aa(lp3118
Vsf
p3119
aI449
aa(lp3120
Vsfgiants
p3121
aI862
aa(lp3122
Vshame
p3123
aI662
aa(lp3124
Vshare
p3125
aI1257
aa(lp3126
Vsharepict
p3127
aI405
aa(lp3128
Vshazam
p3129
aI865
aa(lp3130
Vshit
p3131
aI1650
aa(lp3132
Vshitnoonesays
p3133
aI450
aa(lp3134
Vshocked
p3135
aI428
aa(lp3136
Vshoes
p3137
aI1207
aa(lp3138
Vshop
p3139
aI509
aa(lp3140
Vshopetsy
p3141
aI413
aa(lp3142
Vshopmycloset
p3143
aI1204
aa(lp3144
Vshopping
p3145
aI1912
aa(lp3146
Vshorts
p3147
aI397
aa(lp3148
Vshoutout
p3149
aI2169
aa(lp3150
Vshow
p3151
aI424
aa(lp3152
Vshutup
p3153
aI1293
aa(lp3154
Vsick
p3155
aI1772
aa(lp3156
Vsigh
p3157
aI1427
aa(lp3158
Vsiguemeytesigo
p3159
aI573
aa(lp3160
Vsike
p3161
aI524
aa(lp3162
Vsilly
p3163
aI563
aa(lp3164
Vsimple
p3165
aI1048
aa(lp3166
Vsingapore
p3167
aI707
aa(lp3168
Vsinger
p3169
aI405
aa(lp3170
Vsinging
p3171
aI415
aa(lp3172
Vsingle
p3173
aI922
aa(lp3174
Vsister
p3175
aI1101
aa(lp3176
Vsisters
p3177
aI924
aa(lp3178
Vsjxx
p3179
aI1678
aa(lp3180
Vsketch
p3181
aI487
aa(lp3182
Vskint
p3183
aI1195
aa(lp3184
Vskipto1mill
p3185
aI5632
aa(lp3186
Vsky
p3187
aI1410
aa(lp3188
Vslammiversary
p3189
aI1514
aa(lp3190
Vsleep
p3191
aI1592
aa(lp3192
Vsleepy
p3193
aI1546
aa(lp3194
Vslowdown
p3195
aI1164
aa(lp3196
Vslut
p3197
aI609
aa(lp3198
Vsmaccessorieschicserpetra
p3199
aI825
aa(lp3200
Vsmackdown
p3201
aI1013
aa(lp3202
Vsmallbiz
p3203
aI669
aa(lp3204
Vsmartoperaunlisurf15
p3205
aI450
aa(lp3206
Vsmh
p3207
aI5256
aa(lp3208
Vsmile
p3209
aI3279
aa(lp3210
Vsmiles
p3211
aI629
aa(lp3212
Vsmm
p3213
aI455
aa(lp3214
Vsnapchat
p3215
aI1028
aa(lp3216
Vso
p3217
aI1034
aa(lp3218
Vsobored
p3219
aI430
aa(lp3220
Vsoccer
p3221
aI1367
aa(lp3222
Vsocial
p3223
aI856
aa(lp3224
Vsocialmedia
p3225
aI4055
aa(lp3226
Vsocute
p3227
aI1310
aa(lp3228
Vsoexcited
p3229
aI1680
aa(lp3230
Vsoftball
p3231
aI1036
aa(lp3232
Vsofunny
p3233
aI519
aa(lp3234
Vsogood
p3235
aI1429
aa(lp3236
Vsohappy
p3237
aI948
aa(lp3238
Vsoiknowitsreal
p3239
aI462
aa(lp3240
Vsometimesyouhaveto
p3241
aI7071
aa(lp3242
Vsong
p3243
aI800
aa(lp3244
Vsooners
p3245
aI515
aa(lp3246
Vsoproud
p3247
aI702
aa(lp3248
Vsore
p3249
aI644
aa(lp3250
Vsorry
p3251
aI2438
aa(lp3252
Vsorrynotsorry
p3253
aI8502
aa(lp3254
Vsosad
p3255
aI606
aa(lp3256
Vsotired
p3257
aI1158
aa(lp3258
Vsotrue
p3259
aI713
aa(lp3260
Vsougofollow
p3261
aI2740
aa(lp3262
Vsoundhound
p3263
aI1600
aa(lp3264
Vsoundofchange
p3265
aI691
aa(lp3266
Vsouthafrica
p3267
aI615
aa(lp3268
Vspace
p3269
aI464
aa(lp3270
Vspain
p3271
aI683
aa(lp3272
Vspecialone
p3273
aI410
aa(lp3274
Vspoiled
p3275
aI480
aa(lp3276
Vsport
p3277
aI1015
aa(lp3278
Vsports
p3279
aI2139
aa(lp3280
Vspotify
p3281
aI1655
aa(lp3282
Vspring
p3283
aI571
aa(lp3284
Vspurs
p3285
aI1497
aa(lp3286
Vspursnation
p3287
aI431
aa(lp3288
Vsquad
p3289
aI543
aa(lp3290
Vss5ina
p3291
aI586
aa(lp3292
Vss5inaday1
p3293
aI3306
aa(lp3294
Vss5inaday2
p3295
aI2769
aa(lp3296
Vstamps
p3297
aI463
aa(lp3298
Vstandard
p3299
aI494
aa(lp3300
Vstanleycup
p3301
aI1038
aa(lp3302
Vstarbucks
p3303
aI1171
aa(lp3304
Vstarsdance
p3305
aI411
aa(lp3306
Vstartrek
p3307
aI686
aa(lp3308
Vstartup
p3309
aI1097
aa(lp3310
Vstartups
p3311
aI605
aa(lp3312
Vstarving
p3313
aI853
aa(lp3314
Vstarwars
p3315
aI867
aa(lp3316
Vstateoforigin
p3317
aI1012
aa(lp3318
Vstaystrong
p3319
aI692
aa(lp3320
Vstfu
p3321
aI1085
aa(lp3322
Vstl
p3323
aI479
aa(lp3324
Vstlcards
p3325
aI758
aa(lp3326
Vstocks
p3327
aI601
aa(lp3328
Vstoked
p3329
aI777
aa(lp3330
Vstop
p3331
aI1752
aa(lp3332
Vstopit
p3333
aI424
aa(lp3334
Vstoryofmylife
p3335
aI989
aa(lp3336
Vstress
p3337
aI754
aa(lp3338
Vstressed
p3339
aI992
aa(lp3340
Vstruggle
p3341
aI445
aa(lp3342
Vstudio
p3343
aI435
aa(lp3344
Vstupid
p3345
aI1305
aa(lp3346
Vstyle
p3347
aI2496
aa(lp3348
Vsuaju
p3349
aI727
aa(lp3350
Vsub
p3351
aI611
aa(lp3352
Vsubtweet
p3353
aI2478
aa(lp3354
Vsuccess
p3355
aI1992
aa(lp3356
Vsucks
p3357
aI946
aa(lp3358
Vsuckstosuck
p3359
aI1039
aa(lp3360
Vsummer
p3361
aI14196
aa(lp3362
Vsummer2013
p3363
aI2014
aa(lp3364
Vsummer2k13
p3365
aI510
aa(lp3366
Vsummerfun
p3367
aI604
aa(lp3368
Vsummerjam
p3369
aI661
aa(lp3370
Vsummernights
p3371
aI463
aa(lp3372
Vsummerslasthurrah
p3373
aI634
aa(lp3374
Vsummertime
p3375
aI2088
aa(lp3376
Vsun
p3377
aI4941
aa(lp3378
Vsunburn
p3379
aI702
aa(lp3380
Vsunday
p3381
aI1950
aa(lp3382
Vsundayfunday
p3383
aI1470
aa(lp3384
Vsunglasses
p3385
aI593
aa(lp3386
Vsunny
p3387
aI1582
aa(lp3388
Vsunrise
p3389
aI432
aa(lp3390
Vsunset
p3391
aI1466
aa(lp3392
Vsunshine
p3393
aI2194
aa(lp3394
Vsuperman
p3395
aI530
aa(lp3396
Vsupernatural
p3397
aI622
aa(lp3398
Vsupport
p3399
aI1154
aa(lp3400
Vsuryaray
p3401
aI737
aa(lp3402
Vsushi
p3403
aI445
aa(lp3404
Vswag
p3405
aI3757
aa(lp3406
Vsweet
p3407
aI1680
aa(lp3408
Vsweetdreams
p3409
aI493
aa(lp3410
Vswerve
p3411
aI1559
aa(lp3412
Vswimming
p3413
aI692
aa(lp3414
Vsydney
p3415
aI726
aa(lp3416
Vsyria
p3417
aI2868
aa(lp3418
Vsytycd
p3419
aI768
aa(lp3420
Vt
aI749
aa(lp3421
Vtagsforlikes
p3422
aI1461
aa(lp3423
Vtakemeback
p3424
aI474
aa(lp3425
Vtaksim
p3426
aI873
aa(lp3427
Vtalent
p3428
aI547
aa(lp3429
Vtan
p3430
aI891
aa(lp3431
Vtanning
p3432
aI674
aa(lp3433
Vtattoo
p3434
aI1247
aa(lp3435
Vtattoos
p3436
aI518
aa(lp3437
Vtaurus
p3438
aI1603
aa(lp3439
Vtaylorswift
p3440
aI528
aa(lp3441
Vtbex
p3442
aI1272
aa(lp3443
Vtbt
p3444
aI893
aa(lp3445
Vtcot
p3446
aI7218
aa(lp3447
Vtea
p3448
aI616
aa(lp3449
Vteam
p3450
aI893
aa(lp3451
Vteamautofollow
p3452
aI1450
aa(lp3453
Vteamblake
p3454
aI610
aa(lp3455
Vteamfollowwack
p3456
aI521
aa(lp3457
Vteamheat
p3458
aI2191
aa(lp3459
Vteamhitfollow
p3460
aI1388
aa(lp3461
Vteamiphone
p3462
aI667
aa(lp3463
Vteamlesbian
p3464
aI423
aa(lp3465
Vteamnosleep
p3466
aI862
aa(lp3467
Vteamretweet
p3468
aI751
aa(lp3469
Vteaparty
p3470
aI1620
aa(lp3471
Vtech
p3472
aI3283
aa(lp3473
Vtechnology
p3474
aI1881
aa(lp3475
Vted
p3476
aI405
aa(lp3477
Vteddybear
p3478
aI414
aa(lp3479
Vteddytemz
p3480
aI428
aa(lp3481
Vteen
p3482
aI2228
aa(lp3483
Vteenwolf
p3484
aI8661
aa(lp3485
Vteenwolfseason3
p3486
aI574
aa(lp3487
Vteenwolftonight
p3488
aI671
aa(lp3489
Vtennessee
p3490
aI462
aa(lp3491
Vtennis
p3492
aI1073
aa(lp3493
Vtexas
p3494
aI1228
aa(lp3495
Vtfb
p3496
aI3236
aa(lp3497
Vtfbjp
p3498
aI7078
aa(lp3499
Vtflers
p3500
aI742
aa(lp3501
Vtfw
p3502
aI517
aa(lp3503
Vtgdn
p3504
aI1019
aa(lp3505
Vthailand
p3506
aI504
aa(lp3507
Vthankful
p3508
aI1333
aa(lp3509
Vthankgod
p3510
aI1568
aa(lp3511
Vthanks
p3512
aI2753
aa(lp3513
Vthankyou
p3514
aI2278
aa(lp3515
Vthat
p3516
aI424
aa(lp3517
Vthatawkwardmoment
p3518
aI538
aa(lp3519
Vthatisall
p3520
aI716
aa(lp3521
Vthatpower
p3522
aI634
aa(lp3523
Vthe
p3524
aI1770
aa(lp3525
Vtheapprentice
p3526
aI2340
aa(lp3527
Vtheapprenticeasia
p3528
aI606
aa(lp3529
Vthebachelorette
p3530
aI2871
aa(lp3531
Vthebest
p3532
aI1401
aa(lp3533
Vthecallcentre
p3534
aI921
aa(lp3535
Vthefosters
p3536
aI976
aa(lp3537
Vthegreatgatsby
p3538
aI501
aa(lp3539
Vthekilling
p3540
aI826
aa(lp3541
Vthelife
p3542
aI474
aa(lp3543
Vtheonlywayismarbs
p3544
aI415
aa(lp3545
Vthepurge
p3546
aI873
aa(lp3547
Vtherainsofcastamere
p3548
aI720
aa(lp3549
Vthespecialone
p3550
aI465
aa(lp3551
Vthestruggle
p3552
aI6414
aa(lp3553
Vthestruggleisreal
p3554
aI501
aa(lp3555
Vthevoice
p3556
aI3303
aa(lp3557
Vthevoiceuk
p3558
aI2550
aa(lp3559
Vthewalkingdead
p3560
aI545
aa(lp3561
Vthewantedlife
p3562
aI4972
aa(lp3563
Vthf
p3564
aI1633
aa(lp3565
Vthingsirishpeoplesay
p3566
aI471
aa(lp3567
Vthingsnottodoatafootballmatch
p3568
aI599
aa(lp3569
Vthingsthatscaredemocrats
p3570
aI1276
aa(lp3571
Vthingsthatscareobama
p3572
aI1809
aa(lp3573
Vthingsthatscarerepublicans
p3574
aI1399
aa(lp3575
Vthinkeatsave
p3576
aI550
aa(lp3577
Vthinking
p3578
aI571
aa(lp3579
Vthirsty
p3580
aI1072
aa(lp3581
Vthis
p3582
aI744
aa(lp3583
Vthissucks
p3584
aI530
aa(lp3585
Vthriller
p3586
aI448
aa(lp3587
Vthrowback
p3588
aI3327
aa(lp3589
Vthuglife
p3590
aI1404
aa(lp3591
Vtickets
p3592
aI445
aa(lp3593
Vtigers
p3594
aI787
aa(lp3595
Vtime
p3596
aI1029
aa(lp3597
Vtimeflies
p3598
aI1194
aa(lp3599
Vtips
p3600
aI775
aa(lp3601
Vtipsforfreshies
p3602
aI453
aa(lp3603
Vtired
p3604
aI4865
aa(lp3605
Vtitanic
p3606
aI444
aa(lp3607
Vtits
p3608
aI882
aa(lp3609
Vtittytuesday
p3610
aI635
aa(lp3611
Vtjmarquezforsundayallstar
p3612
aI420
aa(lp3613
Vtlot
p3614
aI1074
aa(lp3615
Vtmlt
p3616
aI1380
aa(lp3617
Vtmw
p3618
aI498
aa(lp3619
Vtna
p3620
aI474
aa(lp3621
Vto
p3622
aI820
aa(lp3623
Vtoday
p3624
aI1264
aa(lp3625
Vtonight
p3626
aI577
aa(lp3627
Vtoocute
p3628
aI779
aa(lp3629
Vtooearly
p3630
aI409
aa(lp3631
Vtoofunny
p3632
aI938
aa(lp3633
Vtoohot
p3634
aI475
aa(lp3635
Vtoomuch
p3636
aI479
aa(lp3637
Vtop
p3638
aI840
aa(lp3639
Vtopoli
p3640
aI1049
aa(lp3641
Vtornado
p3642
aI860
aa(lp3643
Vtoronto
p3644
aI2512
aa(lp3645
Vtowie
p3646
aI2850
aa(lp3647
Vtowim
p3648
aI3426
aa(lp3649
Vtoys
p3650
aI1793
aa(lp3651
Vtpheart
p3652
aI690
aa(lp3653
Vtrading
p3654
aI555
aa(lp3655
Vtraffic
p3656
aI691
aa(lp3657
Vtragic
p3658
aI490
aa(lp3659
Vtraining
p3660
aI774
aa(lp3661
Vtrakt
p3662
aI428
aa(lp3663
Vtrance
p3664
aI416
aa(lp3665
Vtrancefamily
p3666
aI459
aa(lp3667
Vtransformationtuesday
p3668
aI807
aa(lp3669
Vtravel
p3670
aI4200
aa(lp3671
Vtrend
p3672
aI975
aa(lp3673
Vtru
p3674
aI480
aa(lp3675
Vtrue
p3676
aI2227
aa(lp3677
Vtruelife
p3678
aI520
aa(lp3679
Vtruelove
p3680
aI857
aa(lp3681
Vtruestory
p3682
aI1911
aa(lp3683
Vtrust
p3684
aI595
aa(lp3685
Vtruth
p3686
aI7135
aa(lp3687
Vtryhard
p3688
aI4284
aa(lp3689
Vttot
p3690
aI565
aa(lp3691
Vtu
p3692
aI480
aa(lp3693
Vtuesday
p3694
aI468
aa(lp3695
Vtumblr
p3696
aI606
aa(lp3697
Vtune
p3698
aI848
aa(lp3699
Vtunein
p3700
aI610
aa(lp3701
Vturkey
p3702
aI5453
aa(lp3703
Vturndownforwhat
p3704
aI616
aa(lp3705
Vturnt
p3706
aI606
aa(lp3707
Vturntup
p3708
aI991
aa(lp3709
Vturnup
p3710
aI6061
aa(lp3711
Vtv
p3712
aI1236
aa(lp3713
Vtvd
p3714
aI639
aa(lp3715
Vtwat
p3716
aI420
aa(lp3717
Vtweegram
p3718
aI690
aa(lp3719
Vtweet
p3720
aI429
aa(lp3721
Vtweetlikepeoplefromschool
p3722
aI442
aa(lp3723
Vtweetmyjobs
p3724
aI1552
aa(lp3725
Vtweetyourweakness
p3726
aI710
aa(lp3727
Vtwerk
p3728
aI468
aa(lp3729
Vtwins
p3730
aI940
aa(lp3731
Vtwitter
p3732
aI3059
aa(lp3733
Vtwitterafterdark
p3734
aI1378
aa(lp3735
Vtx
p3736
aI654
aa(lp3737
Vtypical
p3738
aI1026
aa(lp3739
Vuae
p3740
aI802
aa(lp3741
Vufc
p3742
aI480
aa(lp3743
Vugh
p3744
aI3046
aa(lp3745
Vughh
p3746
aI432
aa(lp3747
Vugly
p3748
aI515
aa(lp3749
Vuhoh
p3750
aI426
aa(lp3751
Vuk
p3752
aI2184
aa(lp3753
Vultimatekalokalike
p3754
aI2033
aa(lp3755
Vun
p3756
aI403
aa(lp3757
Vunbelievable
p3758
aI420
aa(lp3759
Vunc
p3760
aI431
aa(lp3761
Vundermybed
p3762
aI733
aa(lp3763
Vunexpectedjoys
p3764
aI511
aa(lp3765
Vunionj1million
p3766
aI1256
aa(lp3767
Vunionjbt40
p3768
aI430
aa(lp3769
Vunionjgoshtwitcam
p3770
aI741
aa(lp3771
Vunionjqanda
p3772
aI4291
aa(lp3773
Vuniteblue
p3774
aI1149
aa(lp3775
Vunpopularopinion
p3776
aI4026
aa(lp3777
Vunreal
p3778
aI714
aa(lp3779
Vuoeno
p3780
aI686
aa(lp3781
Vup
p3782
aI505
aa(lp3783
Vuptheblues
p3784
aI636
aa(lp3785
Vus
p3786
aI1580
aa(lp3787
Vusa
p3788
aI3283
aa(lp3789
Vusavger
p3790
aI646
aa(lp3791
Vusmnt
p3792
aI2000
aa(lp3793
Vuswnt
p3794
aI778
aa(lp3795
Vvacation
p3796
aI1617
aa(lp3797
Vvalkyrie
p3798
aI457
aa(lp3799
Vvancouver
p3800
aI1004
aa(lp3801
Vvegan
p3802
aI787
aa(lp3803
Vvegas
p3804
aI1877
aa(lp3805
Vvideo
p3806
aI4733
aa(lp3807
Vvideos
p3808
aI751
aa(lp3809
Vviggle
p3810
aI794
aa(lp3811
Vviggletv
p3812
aI615
aa(lp3813
Vvine
p3814
aI2162
aa(lp3815
Vvintage
p3816
aI2216
aa(lp3817
Vvip
p3818
aI522
aa(lp3819
Vvirgo
p3820
aI1739
aa(lp3821
Vvirgos
p3822
aI727
aa(lp3823
Vvjse2
p3824
aI411
aa(lp3825
Vvoicetop6
p3826
aI815
aa(lp3827
Vvolunteersweek
p3828
aI586
aa(lp3829
Vvotebillysimpson
p3830
aI711
aa(lp3831
Vvs
p3832
aI590
aa(lp3833
Vwaconzy
p3834
aI472
aa(lp3835
Vwah
p3836
aI449
aa(lp3837
Vwaiting
p3838
aI580
aa(lp3839
Vwakeup
p3840
aI544
aa(lp3841
Vwalk
p3842
aI490
aa(lp3843
Vwalking
p3844
aI670
aa(lp3845
Vwant
p3846
aI428
aa(lp3847
Vwastingallthesetears
p3848
aI449
aa(lp3849
Vwatch
p3850
aI1133
aa(lp3851
Vwatchout
p3852
aI653
aa(lp3853
Vwater
p3854
aI1306
aa(lp3855
Vwcs
p3856
aI486
aa(lp3857
Vwcw
p3858
aI1936
aa(lp3859
Vwcws
p3860
aI4814
aa(lp3861
Vwe
p3862
aI584
aa(lp3863
Vweak
p3864
aI712
aa(lp3865
Vwearegezi
p3866
aI517
aa(lp3867
Vwearerushers
p3868
aI597
aa(lp3869
Vweather
p3870
aI2629
aa(lp3871
Vweb
p3872
aI516
aa(lp3873
Vwebcamtoy
p3874
aI1400
aa(lp3875
Vwebdesign
p3876
aI921
aa(lp3877
Vwecantdateif
p3878
aI464
aa(lp3879
Vwecantstop
p3880
aI8017
aa(lp3881
Vwecantstoppremiere
p3882
aI1405
aa(lp3883
Vwecantstoptomorrow
p3884
aI429
aa(lp3885
Vwed2013
p3886
aI469
aa(lp3887
Vwedding
p3888
aI2458
aa(lp3889
Vwednesday
p3890
aI426
aa(lp3891
Vweed
p3892
aI602
aa(lp3893
Vweekend
p3894
aI1107
aa(lp3895
Vweightloss
p3896
aI727
aa(lp3897
Vweird
p3898
aI2570
aa(lp3899
Vweirdo
p3900
aI713
aa(lp3901
Vwelcome
p3902
aI412
aa(lp3903
Vwelcometweet
p3904
aI891
aa(lp3905
Vwhat
p3906
aI2684
aa(lp3907
Vwhataboutlove
p3908
aI727
aa(lp3909
Vwhatever
p3910
aI939
aa(lp3911
Vwhatislife
p3912
aI737
aa(lp3913
Vwhentwitterwasdown
p3914
aI1256
aa(lp3915
Vwhiletwitterwasdown
p3916
aI680
aa(lp3917
Vwhite
p3918
aI1350
aa(lp3919
Vwhoops
p3920
aI1123
aa(lp3921
Vwhy
p3922
aI3422
aa(lp3923
Vwhyme
p3924
aI537
aa(lp3925
Vwhynot
p3926
aI560
aa(lp3927
Vwild
p3928
aI520
aa(lp3929
Vwillsingefollowspree
p3930
aI780
aa(lp3931
Vwin
p3932
aI5112
aa(lp3933
Vwine
p3934
aI1350
aa(lp3935
Vwinner
p3936
aI705
aa(lp3937
Vwinning
p3938
aI4474
aa(lp3939
Vwinter
p3940
aI428
aa(lp3941
Vwisdom
p3942
aI1042
aa(lp3943
Vwiseart
p3944
aI522
aa(lp3945
Vwisewords
p3946
aI555
aa(lp3947
Vwishfulthinking
p3948
aI1375
aa(lp3949
Vwishmeluck
p3950
aI549
aa(lp3951
Vwith
p3952
aI817
aa(lp3953
Vwiunion
p3954
aI470
aa(lp3955
Vwoah
p3956
aI492
aa(lp3957
Vwomancrushwednesday
p3958
aI705
aa(lp3959
Vwomen
p3960
aI1566
aa(lp3961
Vwoo
p3962
aI740
aa(lp3963
Vwoohoo
p3964
aI488
aa(lp3965
Vword
p3966
aI1254
aa(lp3967
Vwordpress
p3968
aI678
aa(lp3969
Vwordsthatchowblacks
p3970
aI413
aa(lp3971
Vwork
p3972
aI4190
aa(lp3973
Vworkflow
p3974
aI1186
aa(lp3975
Vworking
p3976
aI401
aa(lp3977
Vworkout
p3978
aI1516
aa(lp3979
Vworld
p3980
aI1516
aa(lp3981
Vworldenvironmentday
p3982
aI877
aa(lp3983
Vworthit
p3984
aI764
aa(lp3985
Vwow
p3986
aI3193
aa(lp3987
Vwriting
p3988
aI1087
aa(lp3989
Vwshh
p3990
aI471
aa(lp3991
Vwtf
p3992
aI6550
aa(lp3993
Vwth
p3994
aI405
aa(lp3995
Vwut
p3996
aI908
aa(lp3997
Vwwe
p3998
aI1851
aa(lp3999
Vxbox
p4000
aI518
aa(lp4001
Vxfactornz
p4002
aI945
aa(lp4003
Vxoxo
p4004
aI498
aa(lp4005
Vxxx
p4006
aI3295
aa(lp4007
Vya
p4008
aI402
aa(lp4009
Vyahoo
p4010
aI801
aa(lp4011
Vyankees
p4012
aI1767
aa(lp4013
Vyawn
p4014
aI591
aa(lp4015
Vyay
p4016
aI3264
aa(lp4017
Vyeah
p4018
aI645
aa(lp4019
Vyeezus
p4020
aI414
aa(lp4021
Vyeg
p4022
aI760
aa(lp4023
Vyellow
p4024
aI604
aa(lp4025
Vyelp
p4026
aI2838
aa(lp4027
Vyes
p4028
aI2450
aa(lp4029
Vyesplease
p4030
aI541
aa(lp4031
Vyesterday
p4032
aI442
aa(lp4033
Vyikes
p4034
aI770
aa(lp4035
Vyjhd
p4036
aI857
aa(lp4037
Vynwa
p4038
aI598
aa(lp4039
Vyoga
p4040
aI816
aa(lp4041
Vyolo
p4042
aI5008
aa(lp4043
Vyou
p4044
aI1743
aa(lp4045
Vyouahoebecause
p4046
aI590
aa(lp4047
Vyouknowyouareacricketfanwhen
p4048
aI431
aa(lp4049
Vyoulookgoodbut
p4050
aI4157
aa(lp4051
Vyoung
p4052
aI496
aa(lp4053
Vyoureapussy
p4054
aI456
aa(lp4055
Vyourewelcome
p4056
aI836
aa(lp4057
Vyoutube
p4058
aI3330
aa(lp4059
Vyuck
p4060
aI613
aa(lp4061
Vyum
p4062
aI3690
aa(lp4063
Vyumm
p4064
aI446
aa(lp4065
Vyummy
p4066
aI2981
aa(lp4067
Vyyc
p4068
aI735
aatRp4069
.